
/home/cloud/aps-mlir/examples/diff_match/v3ddist_vv/v3ddist_vv.out:     file format elf32-littleriscv


Disassembly of section .text:

000100b4 <exit>:
   100b4:	ff010113          	addi	sp,sp,-16
   100b8:	00000593          	li	a1,0
   100bc:	00812423          	sw	s0,8(sp)
   100c0:	00112623          	sw	ra,12(sp)
   100c4:	00050413          	mv	s0,a0
   100c8:	721000ef          	jal	10fe8 <__call_exitprocs>
   100cc:	0981a783          	lw	a5,152(gp) # 22918 <__stdio_exit_handler>
   100d0:	00078463          	beqz	a5,100d8 <exit+0x24>
   100d4:	000780e7          	jalr	a5
   100d8:	00040513          	mv	a0,s0
   100dc:	0d5100ef          	jal	209b0 <_exit>

000100e0 <register_fini>:
   100e0:	00000793          	li	a5,0
   100e4:	00078863          	beqz	a5,100f4 <register_fini+0x14>
   100e8:	00007517          	auipc	a0,0x7
   100ec:	aa050513          	addi	a0,a0,-1376 # 16b88 <__libc_fini_array>
   100f0:	0300106f          	j	11120 <atexit>
   100f4:	00008067          	ret

000100f8 <_start>:
   100f8:	00012197          	auipc	gp,0x12
   100fc:	78818193          	addi	gp,gp,1928 # 22880 <__global_pointer$>
   10100:	09818513          	addi	a0,gp,152 # 22918 <__stdio_exit_handler>
   10104:	4b018613          	addi	a2,gp,1200 # 22d30 <__BSS_END__>
   10108:	40a60633          	sub	a2,a2,a0
   1010c:	00000593          	li	a1,0
   10110:	571000ef          	jal	10e80 <memset>
   10114:	00001517          	auipc	a0,0x1
   10118:	00c50513          	addi	a0,a0,12 # 11120 <atexit>
   1011c:	00050863          	beqz	a0,1012c <_start+0x34>
   10120:	00007517          	auipc	a0,0x7
   10124:	a6850513          	addi	a0,a0,-1432 # 16b88 <__libc_fini_array>
   10128:	7f9000ef          	jal	11120 <atexit>
   1012c:	4c1000ef          	jal	10dec <__libc_init_array>
   10130:	00012503          	lw	a0,0(sp)
   10134:	00410593          	addi	a1,sp,4
   10138:	00000613          	li	a2,0
   1013c:	0ac000ef          	jal	101e8 <main>
   10140:	f75ff06f          	j	100b4 <exit>

00010144 <__do_global_dtors_aux>:
   10144:	ff010113          	addi	sp,sp,-16
   10148:	00812423          	sw	s0,8(sp)
   1014c:	10018413          	addi	s0,gp,256 # 22980 <completed.1>
   10150:	00044783          	lbu	a5,0(s0)
   10154:	00112623          	sw	ra,12(sp)
   10158:	02079263          	bnez	a5,1017c <__do_global_dtors_aux+0x38>
   1015c:	00000793          	li	a5,0
   10160:	00078a63          	beqz	a5,10174 <__do_global_dtors_aux+0x30>
   10164:	00012517          	auipc	a0,0x12
   10168:	e9c50513          	addi	a0,a0,-356 # 22000 <__EH_FRAME_BEGIN__>
   1016c:	00000097          	auipc	ra,0x0
   10170:	000000e7          	jalr	zero # 0 <exit-0x100b4>
   10174:	00100793          	li	a5,1
   10178:	00f40023          	sb	a5,0(s0)
   1017c:	00c12083          	lw	ra,12(sp)
   10180:	00812403          	lw	s0,8(sp)
   10184:	01010113          	addi	sp,sp,16
   10188:	00008067          	ret

0001018c <frame_dummy>:
   1018c:	00000793          	li	a5,0
   10190:	00078c63          	beqz	a5,101a8 <frame_dummy+0x1c>
   10194:	10418593          	addi	a1,gp,260 # 22984 <object.0>
   10198:	00012517          	auipc	a0,0x12
   1019c:	e6850513          	addi	a0,a0,-408 # 22000 <__EH_FRAME_BEGIN__>
   101a0:	00000317          	auipc	t1,0x0
   101a4:	00000067          	jr	zero # 0 <exit-0x100b4>
   101a8:	00008067          	ret

000101ac <v3ddist_vv>:
   101ac:	54b5750b          	.insn	4, 0x54b5750b
   101b0:	00000513          	li	a0,0
   101b4:	00008067          	ret

000101b8 <get_march>:
   101b8:	fff50513          	addi	a0,a0,-1
   101bc:	00400593          	li	a1,4
   101c0:	00a5ee63          	bltu	a1,a0,101dc <get_march+0x24>
   101c4:	00251513          	slli	a0,a0,0x2
   101c8:	00011597          	auipc	a1,0x11
   101cc:	95858593          	addi	a1,a1,-1704 # 20b20 <_exit+0x170>
   101d0:	00a58533          	add	a0,a1,a0
   101d4:	00052503          	lw	a0,0(a0)
   101d8:	00008067          	ret
   101dc:	00010517          	auipc	a0,0x10
   101e0:	7fb50513          	addi	a0,a0,2043 # 209d7 <_exit+0x27>
   101e4:	00008067          	ret

000101e8 <main>:
   101e8:	fd010113          	addi	sp,sp,-48
   101ec:	02112623          	sw	ra,44(sp)
   101f0:	02812423          	sw	s0,40(sp)
   101f4:	02912223          	sw	s1,36(sp)
   101f8:	03212023          	sw	s2,32(sp)
   101fc:	01312e23          	sw	s3,28(sp)
   10200:	01412c23          	sw	s4,24(sp)
   10204:	01512a23          	sw	s5,20(sp)
   10208:	00011517          	auipc	a0,0x11
   1020c:	89750513          	addi	a0,a0,-1897 # 20a9f <_exit+0xef>
   10210:	03d000ef          	jal	10a4c <puts>
   10214:	00010517          	auipc	a0,0x10
   10218:	00012597          	auipc	a1,0x12
   1021c:	7cb50513          	addi	a0,a0,1995 # 209df <_exit+0x2f>
   10220:	e6858413          	addi	s0,a1,-408 # 22080 <input_data>
   10224:	00040593          	mv	a1,s0
   10228:	708000ef          	jal	10930 <printf>
   1022c:	00010517          	auipc	a0,0x10
   10230:	7ce50513          	addi	a0,a0,1998 # 209fa <_exit+0x4a>
   10234:	18018493          	addi	s1,gp,384 # 22a00 <output_data>
   10238:	00048593          	mv	a1,s1
   1023c:	6f4000ef          	jal	10930 <printf>
   10240:	f1202573          	.insn	4, 0xf1202573
   10244:	fff50513          	addi	a0,a0,-1
   10248:	00400593          	li	a1,4
   1024c:	00a5ee63          	bltu	a1,a0,10268 <main+0x80>
   10250:	00251513          	slli	a0,a0,0x2
   10254:	00011597          	auipc	a1,0x11
   10258:	8cc58593          	addi	a1,a1,-1844 # 20b20 <_exit+0x170>
   1025c:	00a58533          	add	a0,a1,a0
   10260:	00052583          	lw	a1,0(a0)
   10264:	00c0006f          	j	10270 <main+0x88>
   10268:	00010597          	auipc	a1,0x10
   1026c:	76f58593          	addi	a1,a1,1903 # 209d7 <_exit+0x27>
   10270:	00010517          	auipc	a0,0x10
   10274:	7a650513          	addi	a0,a0,1958 # 20a16 <_exit+0x66>
   10278:	6b8000ef          	jal	10930 <printf>
   1027c:	00012823          	sw	zero,16(sp)
   10280:	00040513          	mv	a0,s0
   10284:	00048593          	mv	a1,s1
   10288:	f25ff0ef          	jal	101ac <v3ddist_vv>
   1028c:	00a12823          	sw	a0,16(sp)
   10290:	00040513          	mv	a0,s0
   10294:	00048593          	mv	a1,s1
   10298:	f15ff0ef          	jal	101ac <v3ddist_vv>
   1029c:	00a12823          	sw	a0,16(sp)
   102a0:	00040513          	mv	a0,s0
   102a4:	00048593          	mv	a1,s1
   102a8:	f05ff0ef          	jal	101ac <v3ddist_vv>
   102ac:	00a12823          	sw	a0,16(sp)
   102b0:	00040513          	mv	a0,s0
   102b4:	00048593          	mv	a1,s1
   102b8:	ef5ff0ef          	jal	101ac <v3ddist_vv>
   102bc:	00a12823          	sw	a0,16(sp)
   102c0:	00040513          	mv	a0,s0
   102c4:	00048593          	mv	a1,s1
   102c8:	ee5ff0ef          	jal	101ac <v3ddist_vv>
   102cc:	00a12823          	sw	a0,16(sp)
   102d0:	00040513          	mv	a0,s0
   102d4:	00048593          	mv	a1,s1
   102d8:	ed5ff0ef          	jal	101ac <v3ddist_vv>
   102dc:	00a12823          	sw	a0,16(sp)
   102e0:	00040513          	mv	a0,s0
   102e4:	00048593          	mv	a1,s1
   102e8:	ec5ff0ef          	jal	101ac <v3ddist_vv>
   102ec:	00a12823          	sw	a0,16(sp)
   102f0:	00040513          	mv	a0,s0
   102f4:	00048593          	mv	a1,s1
   102f8:	eb5ff0ef          	jal	101ac <v3ddist_vv>
   102fc:	00a12823          	sw	a0,16(sp)
   10300:	00040513          	mv	a0,s0
   10304:	00048593          	mv	a1,s1
   10308:	ea5ff0ef          	jal	101ac <v3ddist_vv>
   1030c:	00a12823          	sw	a0,16(sp)
   10310:	00040513          	mv	a0,s0
   10314:	00048593          	mv	a1,s1
   10318:	e95ff0ef          	jal	101ac <v3ddist_vv>
   1031c:	00a12823          	sw	a0,16(sp)
   10320:	01012583          	lw	a1,16(sp)
   10324:	00010517          	auipc	a0,0x10
   10328:	70350513          	addi	a0,a0,1795 # 20a27 <_exit+0x77>
   1032c:	604000ef          	jal	10930 <printf>
   10330:	00010517          	auipc	a0,0x10
   10334:	7a350513          	addi	a0,a0,1955 # 20ad3 <_exit+0x123>
   10338:	714000ef          	jal	10a4c <puts>
   1033c:	00000913          	li	s2,0
   10340:	0c040a13          	addi	s4,s0,192
   10344:	00010997          	auipc	s3,0x10
   10348:	6fa98993          	addi	s3,s3,1786 # 20a3e <_exit+0x8e>
   1034c:	01000a93          	li	s5,16
   10350:	f40a2603          	lw	a2,-192(s4)
   10354:	f80a2683          	lw	a3,-128(s4)
   10358:	fc0a2703          	lw	a4,-64(s4)
   1035c:	000a2783          	lw	a5,0(s4)
   10360:	040a2803          	lw	a6,64(s4)
   10364:	080a2883          	lw	a7,128(s4)
   10368:	0004a503          	lw	a0,0(s1)
   1036c:	00a12023          	sw	a0,0(sp)
   10370:	00098513          	mv	a0,s3
   10374:	00090593          	mv	a1,s2
   10378:	5b8000ef          	jal	10930 <printf>
   1037c:	00190913          	addi	s2,s2,1
   10380:	00448493          	addi	s1,s1,4
   10384:	004a0a13          	addi	s4,s4,4
   10388:	fd5914e3          	bne	s2,s5,10350 <main+0x168>
   1038c:	00010517          	auipc	a0,0x10
   10390:	76d50513          	addi	a0,a0,1901 # 20af9 <_exit+0x149>
   10394:	6b8000ef          	jal	10a4c <puts>
   10398:	00042503          	lw	a0,0(s0)
   1039c:	04042583          	lw	a1,64(s0)
   103a0:	08042603          	lw	a2,128(s0)
   103a4:	0c042683          	lw	a3,192(s0)
   103a8:	10042703          	lw	a4,256(s0)
   103ac:	14042783          	lw	a5,320(s0)
   103b0:	40d50533          	sub	a0,a0,a3
   103b4:	00010897          	auipc	a7,0x10
   103b8:	40e585b3          	sub	a1,a1,a4
   103bc:	00010717          	auipc	a4,0x10
   103c0:	18018a13          	addi	s4,gp,384 # 22a00 <output_data>
   103c4:	40f60633          	sub	a2,a2,a5
   103c8:	000a2683          	lw	a3,0(s4)
   103cc:	02a50533          	mul	a0,a0,a0
   103d0:	02b585b3          	mul	a1,a1,a1
   103d4:	00a58533          	add	a0,a1,a0
   103d8:	000a2583          	lw	a1,0(s4)
   103dc:	02c60633          	mul	a2,a2,a2
   103e0:	00c50633          	add	a2,a0,a2
   103e4:	6db70493          	addi	s1,a4,1755 # 20a97 <_exit+0xe7>
   103e8:	6e788993          	addi	s3,a7,1767 # 20a9b <_exit+0xeb>
   103ec:	00048713          	mv	a4,s1
   103f0:	00b60463          	beq	a2,a1,103f8 <main+0x210>
   103f4:	00098713          	mv	a4,s3
   103f8:	00010917          	auipc	s2,0x10
   103fc:	67d90913          	addi	s2,s2,1661 # 20a75 <_exit+0xc5>
   10400:	00090513          	mv	a0,s2
   10404:	00000593          	li	a1,0
   10408:	528000ef          	jal	10930 <printf>
   1040c:	00442503          	lw	a0,4(s0)
   10410:	04442583          	lw	a1,68(s0)
   10414:	08442603          	lw	a2,132(s0)
   10418:	0c442703          	lw	a4,196(s0)
   1041c:	10442783          	lw	a5,260(s0)
   10420:	14442803          	lw	a6,324(s0)
   10424:	004a2683          	lw	a3,4(s4)
   10428:	40e50533          	sub	a0,a0,a4
   1042c:	40f585b3          	sub	a1,a1,a5
   10430:	004a2783          	lw	a5,4(s4)
   10434:	41060633          	sub	a2,a2,a6
   10438:	02a50533          	mul	a0,a0,a0
   1043c:	02b585b3          	mul	a1,a1,a1
   10440:	00a58533          	add	a0,a1,a0
   10444:	02c60633          	mul	a2,a2,a2
   10448:	00c50633          	add	a2,a0,a2
   1044c:	00048713          	mv	a4,s1
   10450:	00f60463          	beq	a2,a5,10458 <main+0x270>
   10454:	00098713          	mv	a4,s3
   10458:	00100593          	li	a1,1
   1045c:	00090513          	mv	a0,s2
   10460:	4d0000ef          	jal	10930 <printf>
   10464:	00842503          	lw	a0,8(s0)
   10468:	04842583          	lw	a1,72(s0)
   1046c:	08842603          	lw	a2,136(s0)
   10470:	0c842703          	lw	a4,200(s0)
   10474:	10842783          	lw	a5,264(s0)
   10478:	14842803          	lw	a6,328(s0)
   1047c:	008a2683          	lw	a3,8(s4)
   10480:	40e50533          	sub	a0,a0,a4
   10484:	008a2703          	lw	a4,8(s4)
   10488:	40f585b3          	sub	a1,a1,a5
   1048c:	41060633          	sub	a2,a2,a6
   10490:	02a50533          	mul	a0,a0,a0
   10494:	02b585b3          	mul	a1,a1,a1
   10498:	00a58533          	add	a0,a1,a0
   1049c:	02c60633          	mul	a2,a2,a2
   104a0:	00c50633          	add	a2,a0,a2
   104a4:	00e60463          	beq	a2,a4,104ac <main+0x2c4>
   104a8:	00098493          	mv	s1,s3
   104ac:	00200593          	li	a1,2
   104b0:	00090513          	mv	a0,s2
   104b4:	00048713          	mv	a4,s1
   104b8:	478000ef          	jal	10930 <printf>
   104bc:	00000513          	li	a0,0
   104c0:	02c12083          	lw	ra,44(sp)
   104c4:	02812403          	lw	s0,40(sp)
   104c8:	02412483          	lw	s1,36(sp)
   104cc:	02012903          	lw	s2,32(sp)
   104d0:	01c12983          	lw	s3,28(sp)
   104d4:	01812a03          	lw	s4,24(sp)
   104d8:	01412a83          	lw	s5,20(sp)
   104dc:	03010113          	addi	sp,sp,48
   104e0:	00008067          	ret

000104e4 <__fp_lock>:
   104e4:	00000513          	li	a0,0
   104e8:	00008067          	ret

000104ec <stdio_exit_handler>:
   104ec:	98018613          	addi	a2,gp,-1664 # 22200 <__sglue>
   104f0:	00005597          	auipc	a1,0x5
   104f4:	79458593          	addi	a1,a1,1940 # 15c84 <_fclose_r>
   104f8:	00012517          	auipc	a0,0x12
   104fc:	d1850513          	addi	a0,a0,-744 # 22210 <_impure_data>
   10500:	33c0006f          	j	1083c <_fwalk_sglue>

00010504 <cleanup_stdio>:
   10504:	00452583          	lw	a1,4(a0)
   10508:	ff010113          	addi	sp,sp,-16
   1050c:	00812423          	sw	s0,8(sp)
   10510:	00112623          	sw	ra,12(sp)
   10514:	1c018793          	addi	a5,gp,448 # 22a40 <__sf>
   10518:	00050413          	mv	s0,a0
   1051c:	00f58463          	beq	a1,a5,10524 <cleanup_stdio+0x20>
   10520:	764050ef          	jal	15c84 <_fclose_r>
   10524:	00842583          	lw	a1,8(s0)
   10528:	22818793          	addi	a5,gp,552 # 22aa8 <__sf+0x68>
   1052c:	00f58663          	beq	a1,a5,10538 <cleanup_stdio+0x34>
   10530:	00040513          	mv	a0,s0
   10534:	750050ef          	jal	15c84 <_fclose_r>
   10538:	00c42583          	lw	a1,12(s0)
   1053c:	29018793          	addi	a5,gp,656 # 22b10 <__sf+0xd0>
   10540:	00f58c63          	beq	a1,a5,10558 <cleanup_stdio+0x54>
   10544:	00040513          	mv	a0,s0
   10548:	00812403          	lw	s0,8(sp)
   1054c:	00c12083          	lw	ra,12(sp)
   10550:	01010113          	addi	sp,sp,16
   10554:	7300506f          	j	15c84 <_fclose_r>
   10558:	00c12083          	lw	ra,12(sp)
   1055c:	00812403          	lw	s0,8(sp)
   10560:	01010113          	addi	sp,sp,16
   10564:	00008067          	ret

00010568 <__fp_unlock>:
   10568:	00000513          	li	a0,0
   1056c:	00008067          	ret

00010570 <global_stdio_init.part.0>:
   10570:	fe010113          	addi	sp,sp,-32
   10574:	00000797          	auipc	a5,0x0
   10578:	f7878793          	addi	a5,a5,-136 # 104ec <stdio_exit_handler>
   1057c:	00112e23          	sw	ra,28(sp)
   10580:	00812c23          	sw	s0,24(sp)
   10584:	00912a23          	sw	s1,20(sp)
   10588:	1c018413          	addi	s0,gp,448 # 22a40 <__sf>
   1058c:	01212823          	sw	s2,16(sp)
   10590:	01312623          	sw	s3,12(sp)
   10594:	01412423          	sw	s4,8(sp)
   10598:	08f1ac23          	sw	a5,152(gp) # 22918 <__stdio_exit_handler>
   1059c:	00800613          	li	a2,8
   105a0:	00400793          	li	a5,4
   105a4:	00000593          	li	a1,0
   105a8:	21c18513          	addi	a0,gp,540 # 22a9c <__sf+0x5c>
   105ac:	00f42623          	sw	a5,12(s0)
   105b0:	00042023          	sw	zero,0(s0)
   105b4:	00042223          	sw	zero,4(s0)
   105b8:	00042423          	sw	zero,8(s0)
   105bc:	06042223          	sw	zero,100(s0)
   105c0:	00042823          	sw	zero,16(s0)
   105c4:	00042a23          	sw	zero,20(s0)
   105c8:	00042c23          	sw	zero,24(s0)
   105cc:	0b5000ef          	jal	10e80 <memset>
   105d0:	000107b7          	lui	a5,0x10
   105d4:	00000a17          	auipc	s4,0x0
   105d8:	484a0a13          	addi	s4,s4,1156 # 10a58 <__sread>
   105dc:	00000997          	auipc	s3,0x0
   105e0:	4e098993          	addi	s3,s3,1248 # 10abc <__swrite>
   105e4:	00000917          	auipc	s2,0x0
   105e8:	56090913          	addi	s2,s2,1376 # 10b44 <__sseek>
   105ec:	00000497          	auipc	s1,0x0
   105f0:	5d048493          	addi	s1,s1,1488 # 10bbc <__sclose>
   105f4:	00978793          	addi	a5,a5,9 # 10009 <exit-0xab>
   105f8:	00800613          	li	a2,8
   105fc:	00000593          	li	a1,0
   10600:	28418513          	addi	a0,gp,644 # 22b04 <__sf+0xc4>
   10604:	03442023          	sw	s4,32(s0)
   10608:	03342223          	sw	s3,36(s0)
   1060c:	03242423          	sw	s2,40(s0)
   10610:	02942623          	sw	s1,44(s0)
   10614:	06f42a23          	sw	a5,116(s0)
   10618:	00842e23          	sw	s0,28(s0)
   1061c:	06042423          	sw	zero,104(s0)
   10620:	06042623          	sw	zero,108(s0)
   10624:	06042823          	sw	zero,112(s0)
   10628:	0c042623          	sw	zero,204(s0)
   1062c:	06042c23          	sw	zero,120(s0)
   10630:	06042e23          	sw	zero,124(s0)
   10634:	08042023          	sw	zero,128(s0)
   10638:	049000ef          	jal	10e80 <memset>
   1063c:	000207b7          	lui	a5,0x20
   10640:	01278793          	addi	a5,a5,18 # 20012 <__subtf3+0x10d2>
   10644:	22818713          	addi	a4,gp,552 # 22aa8 <__sf+0x68>
   10648:	00800613          	li	a2,8
   1064c:	00000593          	li	a1,0
   10650:	2ec18513          	addi	a0,gp,748 # 22b6c <__sf+0x12c>
   10654:	09442423          	sw	s4,136(s0)
   10658:	09342623          	sw	s3,140(s0)
   1065c:	09242823          	sw	s2,144(s0)
   10660:	08942a23          	sw	s1,148(s0)
   10664:	0cf42e23          	sw	a5,220(s0)
   10668:	08e42223          	sw	a4,132(s0)
   1066c:	0c042823          	sw	zero,208(s0)
   10670:	0c042a23          	sw	zero,212(s0)
   10674:	0c042c23          	sw	zero,216(s0)
   10678:	12042a23          	sw	zero,308(s0)
   1067c:	0e042023          	sw	zero,224(s0)
   10680:	0e042223          	sw	zero,228(s0)
   10684:	0e042423          	sw	zero,232(s0)
   10688:	7f8000ef          	jal	10e80 <memset>
   1068c:	29018793          	addi	a5,gp,656 # 22b10 <__sf+0xd0>
   10690:	0f442823          	sw	s4,240(s0)
   10694:	0f342a23          	sw	s3,244(s0)
   10698:	0f242c23          	sw	s2,248(s0)
   1069c:	0e942e23          	sw	s1,252(s0)
   106a0:	01c12083          	lw	ra,28(sp)
   106a4:	0ef42623          	sw	a5,236(s0)
   106a8:	01812403          	lw	s0,24(sp)
   106ac:	01412483          	lw	s1,20(sp)
   106b0:	01012903          	lw	s2,16(sp)
   106b4:	00c12983          	lw	s3,12(sp)
   106b8:	00812a03          	lw	s4,8(sp)
   106bc:	02010113          	addi	sp,sp,32
   106c0:	00008067          	ret

000106c4 <__sfp>:
   106c4:	fe010113          	addi	sp,sp,-32
   106c8:	01312623          	sw	s3,12(sp)
   106cc:	00112e23          	sw	ra,28(sp)
   106d0:	00812c23          	sw	s0,24(sp)
   106d4:	00912a23          	sw	s1,20(sp)
   106d8:	01212823          	sw	s2,16(sp)
   106dc:	0981a783          	lw	a5,152(gp) # 22918 <__stdio_exit_handler>
   106e0:	00050993          	mv	s3,a0
   106e4:	0e078663          	beqz	a5,107d0 <__sfp+0x10c>
   106e8:	98018913          	addi	s2,gp,-1664 # 22200 <__sglue>
   106ec:	fff00493          	li	s1,-1
   106f0:	00492783          	lw	a5,4(s2)
   106f4:	00892403          	lw	s0,8(s2)
   106f8:	fff78793          	addi	a5,a5,-1
   106fc:	0007d863          	bgez	a5,1070c <__sfp+0x48>
   10700:	0800006f          	j	10780 <__sfp+0xbc>
   10704:	06840413          	addi	s0,s0,104
   10708:	06978c63          	beq	a5,s1,10780 <__sfp+0xbc>
   1070c:	00c41703          	lh	a4,12(s0)
   10710:	fff78793          	addi	a5,a5,-1
   10714:	fe0718e3          	bnez	a4,10704 <__sfp+0x40>
   10718:	ffff07b7          	lui	a5,0xffff0
   1071c:	00178793          	addi	a5,a5,1 # ffff0001 <__BSS_END__+0xfffcd2d1>
   10720:	00f42623          	sw	a5,12(s0)
   10724:	06042223          	sw	zero,100(s0)
   10728:	00042023          	sw	zero,0(s0)
   1072c:	00042423          	sw	zero,8(s0)
   10730:	00042223          	sw	zero,4(s0)
   10734:	00042823          	sw	zero,16(s0)
   10738:	00042a23          	sw	zero,20(s0)
   1073c:	00042c23          	sw	zero,24(s0)
   10740:	00800613          	li	a2,8
   10744:	00000593          	li	a1,0
   10748:	05c40513          	addi	a0,s0,92
   1074c:	734000ef          	jal	10e80 <memset>
   10750:	02042823          	sw	zero,48(s0)
   10754:	02042a23          	sw	zero,52(s0)
   10758:	04042223          	sw	zero,68(s0)
   1075c:	04042423          	sw	zero,72(s0)
   10760:	01c12083          	lw	ra,28(sp)
   10764:	00040513          	mv	a0,s0
   10768:	01812403          	lw	s0,24(sp)
   1076c:	01412483          	lw	s1,20(sp)
   10770:	01012903          	lw	s2,16(sp)
   10774:	00c12983          	lw	s3,12(sp)
   10778:	02010113          	addi	sp,sp,32
   1077c:	00008067          	ret
   10780:	00092403          	lw	s0,0(s2)
   10784:	00040663          	beqz	s0,10790 <__sfp+0xcc>
   10788:	00040913          	mv	s2,s0
   1078c:	f65ff06f          	j	106f0 <__sfp+0x2c>
   10790:	1ac00593          	li	a1,428
   10794:	00098513          	mv	a0,s3
   10798:	5d9000ef          	jal	11570 <_malloc_r>
   1079c:	00050413          	mv	s0,a0
   107a0:	02050c63          	beqz	a0,107d8 <__sfp+0x114>
   107a4:	00c50513          	addi	a0,a0,12
   107a8:	00400793          	li	a5,4
   107ac:	00042023          	sw	zero,0(s0)
   107b0:	00f42223          	sw	a5,4(s0)
   107b4:	00a42423          	sw	a0,8(s0)
   107b8:	1a000613          	li	a2,416
   107bc:	00000593          	li	a1,0
   107c0:	6c0000ef          	jal	10e80 <memset>
   107c4:	00892023          	sw	s0,0(s2)
   107c8:	00040913          	mv	s2,s0
   107cc:	f25ff06f          	j	106f0 <__sfp+0x2c>
   107d0:	da1ff0ef          	jal	10570 <global_stdio_init.part.0>
   107d4:	f15ff06f          	j	106e8 <__sfp+0x24>
   107d8:	00092023          	sw	zero,0(s2)
   107dc:	00c00793          	li	a5,12
   107e0:	00f9a023          	sw	a5,0(s3)
   107e4:	f7dff06f          	j	10760 <__sfp+0x9c>

000107e8 <__sinit>:
   107e8:	03452783          	lw	a5,52(a0)
   107ec:	00078463          	beqz	a5,107f4 <__sinit+0xc>
   107f0:	00008067          	ret
   107f4:	00000797          	auipc	a5,0x0
   107f8:	d1078793          	addi	a5,a5,-752 # 10504 <cleanup_stdio>
   107fc:	02f52a23          	sw	a5,52(a0)
   10800:	0981a783          	lw	a5,152(gp) # 22918 <__stdio_exit_handler>
   10804:	fe0796e3          	bnez	a5,107f0 <__sinit+0x8>
   10808:	d69ff06f          	j	10570 <global_stdio_init.part.0>

0001080c <__sfp_lock_acquire>:
   1080c:	00008067          	ret

00010810 <__sfp_lock_release>:
   10810:	00008067          	ret

00010814 <__fp_lock_all>:
   10814:	98018613          	addi	a2,gp,-1664 # 22200 <__sglue>
   10818:	00000597          	auipc	a1,0x0
   1081c:	ccc58593          	addi	a1,a1,-820 # 104e4 <__fp_lock>
   10820:	00000513          	li	a0,0
   10824:	0180006f          	j	1083c <_fwalk_sglue>

00010828 <__fp_unlock_all>:
   10828:	98018613          	addi	a2,gp,-1664 # 22200 <__sglue>
   1082c:	00000597          	auipc	a1,0x0
   10830:	d3c58593          	addi	a1,a1,-708 # 10568 <__fp_unlock>
   10834:	00000513          	li	a0,0
   10838:	0040006f          	j	1083c <_fwalk_sglue>

0001083c <_fwalk_sglue>:
   1083c:	fd010113          	addi	sp,sp,-48
   10840:	03212023          	sw	s2,32(sp)
   10844:	01312e23          	sw	s3,28(sp)
   10848:	01412c23          	sw	s4,24(sp)
   1084c:	01512a23          	sw	s5,20(sp)
   10850:	01612823          	sw	s6,16(sp)
   10854:	01712623          	sw	s7,12(sp)
   10858:	02112623          	sw	ra,44(sp)
   1085c:	02812423          	sw	s0,40(sp)
   10860:	02912223          	sw	s1,36(sp)
   10864:	00050b13          	mv	s6,a0
   10868:	00058b93          	mv	s7,a1
   1086c:	00060a93          	mv	s5,a2
   10870:	00000a13          	li	s4,0
   10874:	00100993          	li	s3,1
   10878:	fff00913          	li	s2,-1
   1087c:	004aa483          	lw	s1,4(s5)
   10880:	008aa403          	lw	s0,8(s5)
   10884:	fff48493          	addi	s1,s1,-1
   10888:	0204c863          	bltz	s1,108b8 <_fwalk_sglue+0x7c>
   1088c:	00c45783          	lhu	a5,12(s0)
   10890:	00f9fe63          	bgeu	s3,a5,108ac <_fwalk_sglue+0x70>
   10894:	00e41783          	lh	a5,14(s0)
   10898:	00040593          	mv	a1,s0
   1089c:	000b0513          	mv	a0,s6
   108a0:	01278663          	beq	a5,s2,108ac <_fwalk_sglue+0x70>
   108a4:	000b80e7          	jalr	s7
   108a8:	00aa6a33          	or	s4,s4,a0
   108ac:	fff48493          	addi	s1,s1,-1
   108b0:	06840413          	addi	s0,s0,104
   108b4:	fd249ce3          	bne	s1,s2,1088c <_fwalk_sglue+0x50>
   108b8:	000aaa83          	lw	s5,0(s5)
   108bc:	fc0a90e3          	bnez	s5,1087c <_fwalk_sglue+0x40>
   108c0:	02c12083          	lw	ra,44(sp)
   108c4:	02812403          	lw	s0,40(sp)
   108c8:	02412483          	lw	s1,36(sp)
   108cc:	02012903          	lw	s2,32(sp)
   108d0:	01c12983          	lw	s3,28(sp)
   108d4:	01412a83          	lw	s5,20(sp)
   108d8:	01012b03          	lw	s6,16(sp)
   108dc:	00c12b83          	lw	s7,12(sp)
   108e0:	000a0513          	mv	a0,s4
   108e4:	01812a03          	lw	s4,24(sp)
   108e8:	03010113          	addi	sp,sp,48
   108ec:	00008067          	ret

000108f0 <_printf_r>:
   108f0:	fc010113          	addi	sp,sp,-64
   108f4:	02c12423          	sw	a2,40(sp)
   108f8:	02d12623          	sw	a3,44(sp)
   108fc:	02e12823          	sw	a4,48(sp)
   10900:	02f12a23          	sw	a5,52(sp)
   10904:	03012c23          	sw	a6,56(sp)
   10908:	03112e23          	sw	a7,60(sp)
   1090c:	00058613          	mv	a2,a1
   10910:	00852583          	lw	a1,8(a0)
   10914:	02810693          	addi	a3,sp,40
   10918:	00112e23          	sw	ra,28(sp)
   1091c:	00d12623          	sw	a3,12(sp)
   10920:	420010ef          	jal	11d40 <_vfprintf_r>
   10924:	01c12083          	lw	ra,28(sp)
   10928:	04010113          	addi	sp,sp,64
   1092c:	00008067          	ret

00010930 <printf>:
   10930:	fc010113          	addi	sp,sp,-64
   10934:	02c12423          	sw	a2,40(sp)
   10938:	02d12623          	sw	a3,44(sp)
   1093c:	08c1a303          	lw	t1,140(gp) # 2290c <_impure_ptr>
   10940:	02b12223          	sw	a1,36(sp)
   10944:	02e12823          	sw	a4,48(sp)
   10948:	02f12a23          	sw	a5,52(sp)
   1094c:	03012c23          	sw	a6,56(sp)
   10950:	03112e23          	sw	a7,60(sp)
   10954:	00832583          	lw	a1,8(t1) # 101a8 <frame_dummy+0x1c>
   10958:	02410693          	addi	a3,sp,36
   1095c:	00050613          	mv	a2,a0
   10960:	00030513          	mv	a0,t1
   10964:	00112e23          	sw	ra,28(sp)
   10968:	00d12623          	sw	a3,12(sp)
   1096c:	3d4010ef          	jal	11d40 <_vfprintf_r>
   10970:	01c12083          	lw	ra,28(sp)
   10974:	04010113          	addi	sp,sp,64
   10978:	00008067          	ret

0001097c <_puts_r>:
   1097c:	fc010113          	addi	sp,sp,-64
   10980:	02812c23          	sw	s0,56(sp)
   10984:	00050413          	mv	s0,a0
   10988:	00058513          	mv	a0,a1
   1098c:	02912a23          	sw	s1,52(sp)
   10990:	02112e23          	sw	ra,60(sp)
   10994:	00058493          	mv	s1,a1
   10998:	5c4000ef          	jal	10f5c <strlen>
   1099c:	00150713          	addi	a4,a0,1
   109a0:	00010697          	auipc	a3,0x10
   109a4:	19468693          	addi	a3,a3,404 # 20b34 <_exit+0x184>
   109a8:	00e12e23          	sw	a4,28(sp)
   109ac:	03442783          	lw	a5,52(s0)
   109b0:	02010713          	addi	a4,sp,32
   109b4:	02d12423          	sw	a3,40(sp)
   109b8:	00e12a23          	sw	a4,20(sp)
   109bc:	00100693          	li	a3,1
   109c0:	00200713          	li	a4,2
   109c4:	02912023          	sw	s1,32(sp)
   109c8:	02a12223          	sw	a0,36(sp)
   109cc:	02d12623          	sw	a3,44(sp)
   109d0:	00e12c23          	sw	a4,24(sp)
   109d4:	00842583          	lw	a1,8(s0)
   109d8:	06078063          	beqz	a5,10a38 <_puts_r+0xbc>
   109dc:	00c59783          	lh	a5,12(a1)
   109e0:	01279713          	slli	a4,a5,0x12
   109e4:	02074263          	bltz	a4,10a08 <_puts_r+0x8c>
   109e8:	0645a703          	lw	a4,100(a1)
   109ec:	ffffe6b7          	lui	a3,0xffffe
   109f0:	fff68693          	addi	a3,a3,-1 # ffffdfff <__BSS_END__+0xfffdb2cf>
   109f4:	00002637          	lui	a2,0x2
   109f8:	00c7e7b3          	or	a5,a5,a2
   109fc:	00d77733          	and	a4,a4,a3
   10a00:	00f59623          	sh	a5,12(a1)
   10a04:	06e5a223          	sw	a4,100(a1)
   10a08:	01410613          	addi	a2,sp,20
   10a0c:	00040513          	mv	a0,s0
   10a10:	6b4050ef          	jal	160c4 <__sfvwrite_r>
   10a14:	03c12083          	lw	ra,60(sp)
   10a18:	03812403          	lw	s0,56(sp)
   10a1c:	00153513          	seqz	a0,a0
   10a20:	40a00533          	neg	a0,a0
   10a24:	00b57513          	andi	a0,a0,11
   10a28:	03412483          	lw	s1,52(sp)
   10a2c:	fff50513          	addi	a0,a0,-1
   10a30:	04010113          	addi	sp,sp,64
   10a34:	00008067          	ret
   10a38:	00040513          	mv	a0,s0
   10a3c:	00b12623          	sw	a1,12(sp)
   10a40:	da9ff0ef          	jal	107e8 <__sinit>
   10a44:	00c12583          	lw	a1,12(sp)
   10a48:	f95ff06f          	j	109dc <_puts_r+0x60>

00010a4c <puts>:
   10a4c:	00050593          	mv	a1,a0
   10a50:	08c1a503          	lw	a0,140(gp) # 2290c <_impure_ptr>
   10a54:	f29ff06f          	j	1097c <_puts_r>

00010a58 <__sread>:
   10a58:	ff010113          	addi	sp,sp,-16
   10a5c:	00812423          	sw	s0,8(sp)
   10a60:	00058413          	mv	s0,a1
   10a64:	00e59583          	lh	a1,14(a1)
   10a68:	00112623          	sw	ra,12(sp)
   10a6c:	2c8000ef          	jal	10d34 <_read_r>
   10a70:	02054063          	bltz	a0,10a90 <__sread+0x38>
   10a74:	05042783          	lw	a5,80(s0)
   10a78:	00c12083          	lw	ra,12(sp)
   10a7c:	00a787b3          	add	a5,a5,a0
   10a80:	04f42823          	sw	a5,80(s0)
   10a84:	00812403          	lw	s0,8(sp)
   10a88:	01010113          	addi	sp,sp,16
   10a8c:	00008067          	ret
   10a90:	00c45783          	lhu	a5,12(s0)
   10a94:	fffff737          	lui	a4,0xfffff
   10a98:	fff70713          	addi	a4,a4,-1 # ffffefff <__BSS_END__+0xfffdc2cf>
   10a9c:	00e7f7b3          	and	a5,a5,a4
   10aa0:	00c12083          	lw	ra,12(sp)
   10aa4:	00f41623          	sh	a5,12(s0)
   10aa8:	00812403          	lw	s0,8(sp)
   10aac:	01010113          	addi	sp,sp,16
   10ab0:	00008067          	ret

00010ab4 <__seofread>:
   10ab4:	00000513          	li	a0,0
   10ab8:	00008067          	ret

00010abc <__swrite>:
   10abc:	00c59783          	lh	a5,12(a1)
   10ac0:	fe010113          	addi	sp,sp,-32
   10ac4:	00812c23          	sw	s0,24(sp)
   10ac8:	00912a23          	sw	s1,20(sp)
   10acc:	01212823          	sw	s2,16(sp)
   10ad0:	01312623          	sw	s3,12(sp)
   10ad4:	00112e23          	sw	ra,28(sp)
   10ad8:	1007f713          	andi	a4,a5,256
   10adc:	00058413          	mv	s0,a1
   10ae0:	00050493          	mv	s1,a0
   10ae4:	00060913          	mv	s2,a2
   10ae8:	00068993          	mv	s3,a3
   10aec:	04071063          	bnez	a4,10b2c <__swrite+0x70>
   10af0:	fffff737          	lui	a4,0xfffff
   10af4:	fff70713          	addi	a4,a4,-1 # ffffefff <__BSS_END__+0xfffdc2cf>
   10af8:	00e7f7b3          	and	a5,a5,a4
   10afc:	00e41583          	lh	a1,14(s0)
   10b00:	00f41623          	sh	a5,12(s0)
   10b04:	01812403          	lw	s0,24(sp)
   10b08:	01c12083          	lw	ra,28(sp)
   10b0c:	00098693          	mv	a3,s3
   10b10:	00090613          	mv	a2,s2
   10b14:	00c12983          	lw	s3,12(sp)
   10b18:	01012903          	lw	s2,16(sp)
   10b1c:	00048513          	mv	a0,s1
   10b20:	01412483          	lw	s1,20(sp)
   10b24:	02010113          	addi	sp,sp,32
   10b28:	2680006f          	j	10d90 <_write_r>
   10b2c:	00e59583          	lh	a1,14(a1)
   10b30:	00200693          	li	a3,2
   10b34:	00000613          	li	a2,0
   10b38:	1a0000ef          	jal	10cd8 <_lseek_r>
   10b3c:	00c41783          	lh	a5,12(s0)
   10b40:	fb1ff06f          	j	10af0 <__swrite+0x34>

00010b44 <__sseek>:
   10b44:	ff010113          	addi	sp,sp,-16
   10b48:	00812423          	sw	s0,8(sp)
   10b4c:	00058413          	mv	s0,a1
   10b50:	00e59583          	lh	a1,14(a1)
   10b54:	00112623          	sw	ra,12(sp)
   10b58:	180000ef          	jal	10cd8 <_lseek_r>
   10b5c:	fff00793          	li	a5,-1
   10b60:	02f50863          	beq	a0,a5,10b90 <__sseek+0x4c>
   10b64:	00c45783          	lhu	a5,12(s0)
   10b68:	00001737          	lui	a4,0x1
   10b6c:	00c12083          	lw	ra,12(sp)
   10b70:	00e7e7b3          	or	a5,a5,a4
   10b74:	01079793          	slli	a5,a5,0x10
   10b78:	4107d793          	srai	a5,a5,0x10
   10b7c:	04a42823          	sw	a0,80(s0)
   10b80:	00f41623          	sh	a5,12(s0)
   10b84:	00812403          	lw	s0,8(sp)
   10b88:	01010113          	addi	sp,sp,16
   10b8c:	00008067          	ret
   10b90:	00c45783          	lhu	a5,12(s0)
   10b94:	fffff737          	lui	a4,0xfffff
   10b98:	fff70713          	addi	a4,a4,-1 # ffffefff <__BSS_END__+0xfffdc2cf>
   10b9c:	00e7f7b3          	and	a5,a5,a4
   10ba0:	01079793          	slli	a5,a5,0x10
   10ba4:	4107d793          	srai	a5,a5,0x10
   10ba8:	00c12083          	lw	ra,12(sp)
   10bac:	00f41623          	sh	a5,12(s0)
   10bb0:	00812403          	lw	s0,8(sp)
   10bb4:	01010113          	addi	sp,sp,16
   10bb8:	00008067          	ret

00010bbc <__sclose>:
   10bbc:	00e59583          	lh	a1,14(a1)
   10bc0:	0040006f          	j	10bc4 <_close_r>

00010bc4 <_close_r>:
   10bc4:	ff010113          	addi	sp,sp,-16
   10bc8:	00812423          	sw	s0,8(sp)
   10bcc:	00050413          	mv	s0,a0
   10bd0:	00058513          	mv	a0,a1
   10bd4:	0801ae23          	sw	zero,156(gp) # 2291c <errno>
   10bd8:	00112623          	sw	ra,12(sp)
   10bdc:	5250f0ef          	jal	20900 <_close>
   10be0:	fff00793          	li	a5,-1
   10be4:	00f50a63          	beq	a0,a5,10bf8 <_close_r+0x34>
   10be8:	00c12083          	lw	ra,12(sp)
   10bec:	00812403          	lw	s0,8(sp)
   10bf0:	01010113          	addi	sp,sp,16
   10bf4:	00008067          	ret
   10bf8:	09c1a783          	lw	a5,156(gp) # 2291c <errno>
   10bfc:	fe0786e3          	beqz	a5,10be8 <_close_r+0x24>
   10c00:	00c12083          	lw	ra,12(sp)
   10c04:	00f42023          	sw	a5,0(s0)
   10c08:	00812403          	lw	s0,8(sp)
   10c0c:	01010113          	addi	sp,sp,16
   10c10:	00008067          	ret

00010c14 <_reclaim_reent>:
   10c14:	08c1a783          	lw	a5,140(gp) # 2290c <_impure_ptr>
   10c18:	0aa78e63          	beq	a5,a0,10cd4 <_reclaim_reent+0xc0>
   10c1c:	04452583          	lw	a1,68(a0)
   10c20:	fe010113          	addi	sp,sp,-32
   10c24:	00912a23          	sw	s1,20(sp)
   10c28:	00112e23          	sw	ra,28(sp)
   10c2c:	00050493          	mv	s1,a0
   10c30:	04058c63          	beqz	a1,10c88 <_reclaim_reent+0x74>
   10c34:	01212823          	sw	s2,16(sp)
   10c38:	01312623          	sw	s3,12(sp)
   10c3c:	00812c23          	sw	s0,24(sp)
   10c40:	00000913          	li	s2,0
   10c44:	08000993          	li	s3,128
   10c48:	012587b3          	add	a5,a1,s2
   10c4c:	0007a403          	lw	s0,0(a5)
   10c50:	00040e63          	beqz	s0,10c6c <_reclaim_reent+0x58>
   10c54:	00040593          	mv	a1,s0
   10c58:	00042403          	lw	s0,0(s0)
   10c5c:	00048513          	mv	a0,s1
   10c60:	60c000ef          	jal	1126c <_free_r>
   10c64:	fe0418e3          	bnez	s0,10c54 <_reclaim_reent+0x40>
   10c68:	0444a583          	lw	a1,68(s1)
   10c6c:	00490913          	addi	s2,s2,4
   10c70:	fd391ce3          	bne	s2,s3,10c48 <_reclaim_reent+0x34>
   10c74:	00048513          	mv	a0,s1
   10c78:	5f4000ef          	jal	1126c <_free_r>
   10c7c:	01812403          	lw	s0,24(sp)
   10c80:	01012903          	lw	s2,16(sp)
   10c84:	00c12983          	lw	s3,12(sp)
   10c88:	0384a583          	lw	a1,56(s1)
   10c8c:	00058663          	beqz	a1,10c98 <_reclaim_reent+0x84>
   10c90:	00048513          	mv	a0,s1
   10c94:	5d8000ef          	jal	1126c <_free_r>
   10c98:	04c4a583          	lw	a1,76(s1)
   10c9c:	00058663          	beqz	a1,10ca8 <_reclaim_reent+0x94>
   10ca0:	00048513          	mv	a0,s1
   10ca4:	5c8000ef          	jal	1126c <_free_r>
   10ca8:	0344a783          	lw	a5,52(s1)
   10cac:	00078c63          	beqz	a5,10cc4 <_reclaim_reent+0xb0>
   10cb0:	01c12083          	lw	ra,28(sp)
   10cb4:	00048513          	mv	a0,s1
   10cb8:	01412483          	lw	s1,20(sp)
   10cbc:	02010113          	addi	sp,sp,32
   10cc0:	00078067          	jr	a5
   10cc4:	01c12083          	lw	ra,28(sp)
   10cc8:	01412483          	lw	s1,20(sp)
   10ccc:	02010113          	addi	sp,sp,32
   10cd0:	00008067          	ret
   10cd4:	00008067          	ret

00010cd8 <_lseek_r>:
   10cd8:	ff010113          	addi	sp,sp,-16
   10cdc:	00058713          	mv	a4,a1
   10ce0:	00812423          	sw	s0,8(sp)
   10ce4:	00060593          	mv	a1,a2
   10ce8:	00050413          	mv	s0,a0
   10cec:	00068613          	mv	a2,a3
   10cf0:	00070513          	mv	a0,a4
   10cf4:	0801ae23          	sw	zero,156(gp) # 2291c <errno>
   10cf8:	00112623          	sw	ra,12(sp)
   10cfc:	4550f0ef          	jal	20950 <_lseek>
   10d00:	fff00793          	li	a5,-1
   10d04:	00f50a63          	beq	a0,a5,10d18 <_lseek_r+0x40>
   10d08:	00c12083          	lw	ra,12(sp)
   10d0c:	00812403          	lw	s0,8(sp)
   10d10:	01010113          	addi	sp,sp,16
   10d14:	00008067          	ret
   10d18:	09c1a783          	lw	a5,156(gp) # 2291c <errno>
   10d1c:	fe0786e3          	beqz	a5,10d08 <_lseek_r+0x30>
   10d20:	00c12083          	lw	ra,12(sp)
   10d24:	00f42023          	sw	a5,0(s0)
   10d28:	00812403          	lw	s0,8(sp)
   10d2c:	01010113          	addi	sp,sp,16
   10d30:	00008067          	ret

00010d34 <_read_r>:
   10d34:	ff010113          	addi	sp,sp,-16
   10d38:	00058713          	mv	a4,a1
   10d3c:	00812423          	sw	s0,8(sp)
   10d40:	00060593          	mv	a1,a2
   10d44:	00050413          	mv	s0,a0
   10d48:	00068613          	mv	a2,a3
   10d4c:	00070513          	mv	a0,a4
   10d50:	0801ae23          	sw	zero,156(gp) # 2291c <errno>
   10d54:	00112623          	sw	ra,12(sp)
   10d58:	4090f0ef          	jal	20960 <_read>
   10d5c:	fff00793          	li	a5,-1
   10d60:	00f50a63          	beq	a0,a5,10d74 <_read_r+0x40>
   10d64:	00c12083          	lw	ra,12(sp)
   10d68:	00812403          	lw	s0,8(sp)
   10d6c:	01010113          	addi	sp,sp,16
   10d70:	00008067          	ret
   10d74:	09c1a783          	lw	a5,156(gp) # 2291c <errno>
   10d78:	fe0786e3          	beqz	a5,10d64 <_read_r+0x30>
   10d7c:	00c12083          	lw	ra,12(sp)
   10d80:	00f42023          	sw	a5,0(s0)
   10d84:	00812403          	lw	s0,8(sp)
   10d88:	01010113          	addi	sp,sp,16
   10d8c:	00008067          	ret

00010d90 <_write_r>:
   10d90:	ff010113          	addi	sp,sp,-16
   10d94:	00058713          	mv	a4,a1
   10d98:	00812423          	sw	s0,8(sp)
   10d9c:	00060593          	mv	a1,a2
   10da0:	00050413          	mv	s0,a0
   10da4:	00068613          	mv	a2,a3
   10da8:	00070513          	mv	a0,a4
   10dac:	0801ae23          	sw	zero,156(gp) # 2291c <errno>
   10db0:	00112623          	sw	ra,12(sp)
   10db4:	3ed0f0ef          	jal	209a0 <_write>
   10db8:	fff00793          	li	a5,-1
   10dbc:	00f50a63          	beq	a0,a5,10dd0 <_write_r+0x40>
   10dc0:	00c12083          	lw	ra,12(sp)
   10dc4:	00812403          	lw	s0,8(sp)
   10dc8:	01010113          	addi	sp,sp,16
   10dcc:	00008067          	ret
   10dd0:	09c1a783          	lw	a5,156(gp) # 2291c <errno>
   10dd4:	fe0786e3          	beqz	a5,10dc0 <_write_r+0x30>
   10dd8:	00c12083          	lw	ra,12(sp)
   10ddc:	00f42023          	sw	a5,0(s0)
   10de0:	00812403          	lw	s0,8(sp)
   10de4:	01010113          	addi	sp,sp,16
   10de8:	00008067          	ret

00010dec <__libc_init_array>:
   10dec:	ff010113          	addi	sp,sp,-16
   10df0:	00812423          	sw	s0,8(sp)
   10df4:	01212023          	sw	s2,0(sp)
   10df8:	00011797          	auipc	a5,0x11
   10dfc:	27878793          	addi	a5,a5,632 # 22070 <__init_array_start>
   10e00:	00011417          	auipc	s0,0x11
   10e04:	27040413          	addi	s0,s0,624 # 22070 <__init_array_start>
   10e08:	00112623          	sw	ra,12(sp)
   10e0c:	00912223          	sw	s1,4(sp)
   10e10:	40878933          	sub	s2,a5,s0
   10e14:	02878063          	beq	a5,s0,10e34 <__libc_init_array+0x48>
   10e18:	40295913          	srai	s2,s2,0x2
   10e1c:	00000493          	li	s1,0
   10e20:	00042783          	lw	a5,0(s0)
   10e24:	00148493          	addi	s1,s1,1
   10e28:	00440413          	addi	s0,s0,4
   10e2c:	000780e7          	jalr	a5
   10e30:	ff24e8e3          	bltu	s1,s2,10e20 <__libc_init_array+0x34>
   10e34:	00011797          	auipc	a5,0x11
   10e38:	24478793          	addi	a5,a5,580 # 22078 <__do_global_dtors_aux_fini_array_entry>
   10e3c:	00011417          	auipc	s0,0x11
   10e40:	23440413          	addi	s0,s0,564 # 22070 <__init_array_start>
   10e44:	40878933          	sub	s2,a5,s0
   10e48:	40295913          	srai	s2,s2,0x2
   10e4c:	00878e63          	beq	a5,s0,10e68 <__libc_init_array+0x7c>
   10e50:	00000493          	li	s1,0
   10e54:	00042783          	lw	a5,0(s0)
   10e58:	00148493          	addi	s1,s1,1
   10e5c:	00440413          	addi	s0,s0,4
   10e60:	000780e7          	jalr	a5
   10e64:	ff24e8e3          	bltu	s1,s2,10e54 <__libc_init_array+0x68>
   10e68:	00c12083          	lw	ra,12(sp)
   10e6c:	00812403          	lw	s0,8(sp)
   10e70:	00412483          	lw	s1,4(sp)
   10e74:	00012903          	lw	s2,0(sp)
   10e78:	01010113          	addi	sp,sp,16
   10e7c:	00008067          	ret

00010e80 <memset>:
   10e80:	00f00313          	li	t1,15
   10e84:	00050713          	mv	a4,a0
   10e88:	02c37e63          	bgeu	t1,a2,10ec4 <memset+0x44>
   10e8c:	00f77793          	andi	a5,a4,15
   10e90:	0a079063          	bnez	a5,10f30 <memset+0xb0>
   10e94:	08059263          	bnez	a1,10f18 <memset+0x98>
   10e98:	ff067693          	andi	a3,a2,-16
   10e9c:	00f67613          	andi	a2,a2,15
   10ea0:	00e686b3          	add	a3,a3,a4
   10ea4:	00b72023          	sw	a1,0(a4)
   10ea8:	00b72223          	sw	a1,4(a4)
   10eac:	00b72423          	sw	a1,8(a4)
   10eb0:	00b72623          	sw	a1,12(a4)
   10eb4:	01070713          	addi	a4,a4,16
   10eb8:	fed766e3          	bltu	a4,a3,10ea4 <memset+0x24>
   10ebc:	00061463          	bnez	a2,10ec4 <memset+0x44>
   10ec0:	00008067          	ret
   10ec4:	40c306b3          	sub	a3,t1,a2
   10ec8:	00269693          	slli	a3,a3,0x2
   10ecc:	00000297          	auipc	t0,0x0
   10ed0:	005686b3          	add	a3,a3,t0
   10ed4:	00c68067          	jr	12(a3)
   10ed8:	00b70723          	sb	a1,14(a4)
   10edc:	00b706a3          	sb	a1,13(a4)
   10ee0:	00b70623          	sb	a1,12(a4)
   10ee4:	00b705a3          	sb	a1,11(a4)
   10ee8:	00b70523          	sb	a1,10(a4)
   10eec:	00b704a3          	sb	a1,9(a4)
   10ef0:	00b70423          	sb	a1,8(a4)
   10ef4:	00b703a3          	sb	a1,7(a4)
   10ef8:	00b70323          	sb	a1,6(a4)
   10efc:	00b702a3          	sb	a1,5(a4)
   10f00:	00b70223          	sb	a1,4(a4)
   10f04:	00b701a3          	sb	a1,3(a4)
   10f08:	00b70123          	sb	a1,2(a4)
   10f0c:	00b700a3          	sb	a1,1(a4)
   10f10:	00b70023          	sb	a1,0(a4)
   10f14:	00008067          	ret
   10f18:	0ff5f593          	zext.b	a1,a1
   10f1c:	00859693          	slli	a3,a1,0x8
   10f20:	00d5e5b3          	or	a1,a1,a3
   10f24:	01059693          	slli	a3,a1,0x10
   10f28:	00d5e5b3          	or	a1,a1,a3
   10f2c:	f6dff06f          	j	10e98 <memset+0x18>
   10f30:	00279693          	slli	a3,a5,0x2
   10f34:	00000297          	auipc	t0,0x0
   10f38:	005686b3          	add	a3,a3,t0
   10f3c:	00008293          	mv	t0,ra
   10f40:	fa0680e7          	jalr	-96(a3)
   10f44:	00028093          	mv	ra,t0
   10f48:	ff078793          	addi	a5,a5,-16
   10f4c:	40f70733          	sub	a4,a4,a5
   10f50:	00f60633          	add	a2,a2,a5
   10f54:	f6c378e3          	bgeu	t1,a2,10ec4 <memset+0x44>
   10f58:	f3dff06f          	j	10e94 <memset+0x14>

00010f5c <strlen>:
   10f5c:	00357793          	andi	a5,a0,3
   10f60:	00050713          	mv	a4,a0
   10f64:	04079c63          	bnez	a5,10fbc <strlen+0x60>
   10f68:	7f7f86b7          	lui	a3,0x7f7f8
   10f6c:	f7f68693          	addi	a3,a3,-129 # 7f7f7f7f <__BSS_END__+0x7f7d524f>
   10f70:	fff00593          	li	a1,-1
   10f74:	00072603          	lw	a2,0(a4)
   10f78:	00470713          	addi	a4,a4,4
   10f7c:	00d677b3          	and	a5,a2,a3
   10f80:	00d787b3          	add	a5,a5,a3
   10f84:	00c7e7b3          	or	a5,a5,a2
   10f88:	00d7e7b3          	or	a5,a5,a3
   10f8c:	feb784e3          	beq	a5,a1,10f74 <strlen+0x18>
   10f90:	ffc74683          	lbu	a3,-4(a4)
   10f94:	40a707b3          	sub	a5,a4,a0
   10f98:	04068463          	beqz	a3,10fe0 <strlen+0x84>
   10f9c:	ffd74683          	lbu	a3,-3(a4)
   10fa0:	02068c63          	beqz	a3,10fd8 <strlen+0x7c>
   10fa4:	ffe74503          	lbu	a0,-2(a4)
   10fa8:	00a03533          	snez	a0,a0
   10fac:	00f50533          	add	a0,a0,a5
   10fb0:	ffe50513          	addi	a0,a0,-2
   10fb4:	00008067          	ret
   10fb8:	fa0688e3          	beqz	a3,10f68 <strlen+0xc>
   10fbc:	00074783          	lbu	a5,0(a4)
   10fc0:	00170713          	addi	a4,a4,1
   10fc4:	00377693          	andi	a3,a4,3
   10fc8:	fe0798e3          	bnez	a5,10fb8 <strlen+0x5c>
   10fcc:	40a70733          	sub	a4,a4,a0
   10fd0:	fff70513          	addi	a0,a4,-1
   10fd4:	00008067          	ret
   10fd8:	ffd78513          	addi	a0,a5,-3
   10fdc:	00008067          	ret
   10fe0:	ffc78513          	addi	a0,a5,-4
   10fe4:	00008067          	ret

00010fe8 <__call_exitprocs>:
   10fe8:	fd010113          	addi	sp,sp,-48
   10fec:	01412c23          	sw	s4,24(sp)
   10ff0:	0a018a13          	addi	s4,gp,160 # 22920 <__atexit>
   10ff4:	03212023          	sw	s2,32(sp)
   10ff8:	000a2903          	lw	s2,0(s4)
   10ffc:	02112623          	sw	ra,44(sp)
   11000:	0a090863          	beqz	s2,110b0 <__call_exitprocs+0xc8>
   11004:	01312e23          	sw	s3,28(sp)
   11008:	01512a23          	sw	s5,20(sp)
   1100c:	01612823          	sw	s6,16(sp)
   11010:	01712623          	sw	s7,12(sp)
   11014:	02812423          	sw	s0,40(sp)
   11018:	02912223          	sw	s1,36(sp)
   1101c:	01812423          	sw	s8,8(sp)
   11020:	00050b13          	mv	s6,a0
   11024:	00058b93          	mv	s7,a1
   11028:	fff00993          	li	s3,-1
   1102c:	00100a93          	li	s5,1
   11030:	00492483          	lw	s1,4(s2)
   11034:	fff48413          	addi	s0,s1,-1
   11038:	04044e63          	bltz	s0,11094 <__call_exitprocs+0xac>
   1103c:	00249493          	slli	s1,s1,0x2
   11040:	009904b3          	add	s1,s2,s1
   11044:	080b9063          	bnez	s7,110c4 <__call_exitprocs+0xdc>
   11048:	00492783          	lw	a5,4(s2)
   1104c:	0044a683          	lw	a3,4(s1)
   11050:	fff78793          	addi	a5,a5,-1
   11054:	0a878c63          	beq	a5,s0,1110c <__call_exitprocs+0x124>
   11058:	0004a223          	sw	zero,4(s1)
   1105c:	02068663          	beqz	a3,11088 <__call_exitprocs+0xa0>
   11060:	18892783          	lw	a5,392(s2)
   11064:	008a9733          	sll	a4,s5,s0
   11068:	00492c03          	lw	s8,4(s2)
   1106c:	00f777b3          	and	a5,a4,a5
   11070:	06079663          	bnez	a5,110dc <__call_exitprocs+0xf4>
   11074:	000680e7          	jalr	a3
   11078:	00492703          	lw	a4,4(s2)
   1107c:	000a2783          	lw	a5,0(s4)
   11080:	09871063          	bne	a4,s8,11100 <__call_exitprocs+0x118>
   11084:	07279e63          	bne	a5,s2,11100 <__call_exitprocs+0x118>
   11088:	fff40413          	addi	s0,s0,-1
   1108c:	ffc48493          	addi	s1,s1,-4
   11090:	fb341ae3          	bne	s0,s3,11044 <__call_exitprocs+0x5c>
   11094:	02812403          	lw	s0,40(sp)
   11098:	02412483          	lw	s1,36(sp)
   1109c:	01c12983          	lw	s3,28(sp)
   110a0:	01412a83          	lw	s5,20(sp)
   110a4:	01012b03          	lw	s6,16(sp)
   110a8:	00c12b83          	lw	s7,12(sp)
   110ac:	00812c03          	lw	s8,8(sp)
   110b0:	02c12083          	lw	ra,44(sp)
   110b4:	02012903          	lw	s2,32(sp)
   110b8:	01812a03          	lw	s4,24(sp)
   110bc:	03010113          	addi	sp,sp,48
   110c0:	00008067          	ret
   110c4:	1044a783          	lw	a5,260(s1)
   110c8:	f97780e3          	beq	a5,s7,11048 <__call_exitprocs+0x60>
   110cc:	fff40413          	addi	s0,s0,-1
   110d0:	ffc48493          	addi	s1,s1,-4
   110d4:	ff3418e3          	bne	s0,s3,110c4 <__call_exitprocs+0xdc>
   110d8:	fbdff06f          	j	11094 <__call_exitprocs+0xac>
   110dc:	18c92783          	lw	a5,396(s2)
   110e0:	0844a583          	lw	a1,132(s1)
   110e4:	00f77733          	and	a4,a4,a5
   110e8:	02071663          	bnez	a4,11114 <__call_exitprocs+0x12c>
   110ec:	000b0513          	mv	a0,s6
   110f0:	000680e7          	jalr	a3
   110f4:	00492703          	lw	a4,4(s2)
   110f8:	000a2783          	lw	a5,0(s4)
   110fc:	f98704e3          	beq	a4,s8,11084 <__call_exitprocs+0x9c>
   11100:	f8078ae3          	beqz	a5,11094 <__call_exitprocs+0xac>
   11104:	00078913          	mv	s2,a5
   11108:	f29ff06f          	j	11030 <__call_exitprocs+0x48>
   1110c:	00892223          	sw	s0,4(s2)
   11110:	f4dff06f          	j	1105c <__call_exitprocs+0x74>
   11114:	00058513          	mv	a0,a1
   11118:	000680e7          	jalr	a3
   1111c:	f5dff06f          	j	11078 <__call_exitprocs+0x90>

00011120 <atexit>:
   11120:	00050593          	mv	a1,a0
   11124:	00000693          	li	a3,0
   11128:	00000613          	li	a2,0
   1112c:	00000513          	li	a0,0
   11130:	0780606f          	j	171a8 <__register_exitproc>

00011134 <_malloc_trim_r>:
   11134:	fe010113          	addi	sp,sp,-32
   11138:	00812c23          	sw	s0,24(sp)
   1113c:	00912a23          	sw	s1,20(sp)
   11140:	01212823          	sw	s2,16(sp)
   11144:	01312623          	sw	s3,12(sp)
   11148:	01412423          	sw	s4,8(sp)
   1114c:	00058993          	mv	s3,a1
   11150:	00112e23          	sw	ra,28(sp)
   11154:	00050913          	mv	s2,a0
   11158:	00011a17          	auipc	s4,0x11
   1115c:	1d8a0a13          	addi	s4,s4,472 # 22330 <__malloc_av_>
   11160:	3d9000ef          	jal	11d38 <__malloc_lock>
   11164:	008a2703          	lw	a4,8(s4)
   11168:	000017b7          	lui	a5,0x1
   1116c:	fef78793          	addi	a5,a5,-17 # fef <exit-0xf0c5>
   11170:	00472483          	lw	s1,4(a4)
   11174:	00001737          	lui	a4,0x1
   11178:	ffc4f493          	andi	s1,s1,-4
   1117c:	00f48433          	add	s0,s1,a5
   11180:	41340433          	sub	s0,s0,s3
   11184:	00c45413          	srli	s0,s0,0xc
   11188:	fff40413          	addi	s0,s0,-1
   1118c:	00c41413          	slli	s0,s0,0xc
   11190:	00e44e63          	blt	s0,a4,111ac <_malloc_trim_r+0x78>
   11194:	00000593          	li	a1,0
   11198:	00090513          	mv	a0,s2
   1119c:	19d050ef          	jal	16b38 <_sbrk_r>
   111a0:	008a2783          	lw	a5,8(s4)
   111a4:	009787b3          	add	a5,a5,s1
   111a8:	02f50863          	beq	a0,a5,111d8 <_malloc_trim_r+0xa4>
   111ac:	00090513          	mv	a0,s2
   111b0:	38d000ef          	jal	11d3c <__malloc_unlock>
   111b4:	01c12083          	lw	ra,28(sp)
   111b8:	01812403          	lw	s0,24(sp)
   111bc:	01412483          	lw	s1,20(sp)
   111c0:	01012903          	lw	s2,16(sp)
   111c4:	00c12983          	lw	s3,12(sp)
   111c8:	00812a03          	lw	s4,8(sp)
   111cc:	00000513          	li	a0,0
   111d0:	02010113          	addi	sp,sp,32
   111d4:	00008067          	ret
   111d8:	408005b3          	neg	a1,s0
   111dc:	00090513          	mv	a0,s2
   111e0:	159050ef          	jal	16b38 <_sbrk_r>
   111e4:	fff00793          	li	a5,-1
   111e8:	04f50863          	beq	a0,a5,11238 <_malloc_trim_r+0x104>
   111ec:	2f818713          	addi	a4,gp,760 # 22b78 <__malloc_current_mallinfo>
   111f0:	00072783          	lw	a5,0(a4) # 1000 <exit-0xf0b4>
   111f4:	008a2683          	lw	a3,8(s4)
   111f8:	408484b3          	sub	s1,s1,s0
   111fc:	0014e493          	ori	s1,s1,1
   11200:	408787b3          	sub	a5,a5,s0
   11204:	00090513          	mv	a0,s2
   11208:	0096a223          	sw	s1,4(a3)
   1120c:	00f72023          	sw	a5,0(a4)
   11210:	32d000ef          	jal	11d3c <__malloc_unlock>
   11214:	01c12083          	lw	ra,28(sp)
   11218:	01812403          	lw	s0,24(sp)
   1121c:	01412483          	lw	s1,20(sp)
   11220:	01012903          	lw	s2,16(sp)
   11224:	00c12983          	lw	s3,12(sp)
   11228:	00812a03          	lw	s4,8(sp)
   1122c:	00100513          	li	a0,1
   11230:	02010113          	addi	sp,sp,32
   11234:	00008067          	ret
   11238:	00000593          	li	a1,0
   1123c:	00090513          	mv	a0,s2
   11240:	0f9050ef          	jal	16b38 <_sbrk_r>
   11244:	008a2703          	lw	a4,8(s4)
   11248:	00f00693          	li	a3,15
   1124c:	40e507b3          	sub	a5,a0,a4
   11250:	f4f6dee3          	bge	a3,a5,111ac <_malloc_trim_r+0x78>
   11254:	0901a683          	lw	a3,144(gp) # 22910 <__malloc_sbrk_base>
   11258:	40d50533          	sub	a0,a0,a3
   1125c:	0017e793          	ori	a5,a5,1
   11260:	2ea1ac23          	sw	a0,760(gp) # 22b78 <__malloc_current_mallinfo>
   11264:	00f72223          	sw	a5,4(a4)
   11268:	f45ff06f          	j	111ac <_malloc_trim_r+0x78>

0001126c <_free_r>:
   1126c:	18058263          	beqz	a1,113f0 <_free_r+0x184>
   11270:	ff010113          	addi	sp,sp,-16
   11274:	00812423          	sw	s0,8(sp)
   11278:	00912223          	sw	s1,4(sp)
   1127c:	00058413          	mv	s0,a1
   11280:	00050493          	mv	s1,a0
   11284:	00112623          	sw	ra,12(sp)
   11288:	2b1000ef          	jal	11d38 <__malloc_lock>
   1128c:	ffc42583          	lw	a1,-4(s0)
   11290:	ff840713          	addi	a4,s0,-8
   11294:	00011517          	auipc	a0,0x11
   11298:	09c50513          	addi	a0,a0,156 # 22330 <__malloc_av_>
   1129c:	ffe5f793          	andi	a5,a1,-2
   112a0:	00f70633          	add	a2,a4,a5
   112a4:	00462683          	lw	a3,4(a2) # 2004 <exit-0xe0b0>
   112a8:	00852803          	lw	a6,8(a0)
   112ac:	ffc6f693          	andi	a3,a3,-4
   112b0:	1ac80263          	beq	a6,a2,11454 <_free_r+0x1e8>
   112b4:	00d62223          	sw	a3,4(a2)
   112b8:	0015f593          	andi	a1,a1,1
   112bc:	00d60833          	add	a6,a2,a3
   112c0:	0a059063          	bnez	a1,11360 <_free_r+0xf4>
   112c4:	ff842303          	lw	t1,-8(s0)
   112c8:	00482583          	lw	a1,4(a6)
   112cc:	00011897          	auipc	a7,0x11
   112d0:	06c88893          	addi	a7,a7,108 # 22338 <__malloc_av_+0x8>
   112d4:	40670733          	sub	a4,a4,t1
   112d8:	00872803          	lw	a6,8(a4)
   112dc:	006787b3          	add	a5,a5,t1
   112e0:	0015f593          	andi	a1,a1,1
   112e4:	15180263          	beq	a6,a7,11428 <_free_r+0x1bc>
   112e8:	00c72303          	lw	t1,12(a4)
   112ec:	00682623          	sw	t1,12(a6)
   112f0:	01032423          	sw	a6,8(t1)
   112f4:	1a058663          	beqz	a1,114a0 <_free_r+0x234>
   112f8:	0017e693          	ori	a3,a5,1
   112fc:	00d72223          	sw	a3,4(a4)
   11300:	00f62023          	sw	a5,0(a2)
   11304:	1ff00693          	li	a3,511
   11308:	06f6ec63          	bltu	a3,a5,11380 <_free_r+0x114>
   1130c:	ff87f693          	andi	a3,a5,-8
   11310:	00868693          	addi	a3,a3,8
   11314:	00452583          	lw	a1,4(a0)
   11318:	00d506b3          	add	a3,a0,a3
   1131c:	0006a603          	lw	a2,0(a3)
   11320:	0057d813          	srli	a6,a5,0x5
   11324:	00100793          	li	a5,1
   11328:	010797b3          	sll	a5,a5,a6
   1132c:	00b7e7b3          	or	a5,a5,a1
   11330:	ff868593          	addi	a1,a3,-8
   11334:	00b72623          	sw	a1,12(a4)
   11338:	00c72423          	sw	a2,8(a4)
   1133c:	00f52223          	sw	a5,4(a0)
   11340:	00e6a023          	sw	a4,0(a3)
   11344:	00e62623          	sw	a4,12(a2)
   11348:	00812403          	lw	s0,8(sp)
   1134c:	00c12083          	lw	ra,12(sp)
   11350:	00048513          	mv	a0,s1
   11354:	00412483          	lw	s1,4(sp)
   11358:	01010113          	addi	sp,sp,16
   1135c:	1e10006f          	j	11d3c <__malloc_unlock>
   11360:	00482583          	lw	a1,4(a6)
   11364:	0015f593          	andi	a1,a1,1
   11368:	08058663          	beqz	a1,113f4 <_free_r+0x188>
   1136c:	0017e693          	ori	a3,a5,1
   11370:	fed42e23          	sw	a3,-4(s0)
   11374:	00f62023          	sw	a5,0(a2)
   11378:	1ff00693          	li	a3,511
   1137c:	f8f6f8e3          	bgeu	a3,a5,1130c <_free_r+0xa0>
   11380:	0097d693          	srli	a3,a5,0x9
   11384:	00400613          	li	a2,4
   11388:	12d66063          	bltu	a2,a3,114a8 <_free_r+0x23c>
   1138c:	0067d693          	srli	a3,a5,0x6
   11390:	03968593          	addi	a1,a3,57
   11394:	03868613          	addi	a2,a3,56
   11398:	00359593          	slli	a1,a1,0x3
   1139c:	00b505b3          	add	a1,a0,a1
   113a0:	0005a683          	lw	a3,0(a1)
   113a4:	ff858593          	addi	a1,a1,-8
   113a8:	00d59863          	bne	a1,a3,113b8 <_free_r+0x14c>
   113ac:	1540006f          	j	11500 <_free_r+0x294>
   113b0:	0086a683          	lw	a3,8(a3)
   113b4:	00d58863          	beq	a1,a3,113c4 <_free_r+0x158>
   113b8:	0046a603          	lw	a2,4(a3)
   113bc:	ffc67613          	andi	a2,a2,-4
   113c0:	fec7e8e3          	bltu	a5,a2,113b0 <_free_r+0x144>
   113c4:	00c6a583          	lw	a1,12(a3)
   113c8:	00b72623          	sw	a1,12(a4)
   113cc:	00d72423          	sw	a3,8(a4)
   113d0:	00812403          	lw	s0,8(sp)
   113d4:	00c12083          	lw	ra,12(sp)
   113d8:	00e5a423          	sw	a4,8(a1)
   113dc:	00048513          	mv	a0,s1
   113e0:	00412483          	lw	s1,4(sp)
   113e4:	00e6a623          	sw	a4,12(a3)
   113e8:	01010113          	addi	sp,sp,16
   113ec:	1510006f          	j	11d3c <__malloc_unlock>
   113f0:	00008067          	ret
   113f4:	00d787b3          	add	a5,a5,a3
   113f8:	00011897          	auipc	a7,0x11
   113fc:	f4088893          	addi	a7,a7,-192 # 22338 <__malloc_av_+0x8>
   11400:	00862683          	lw	a3,8(a2)
   11404:	0d168c63          	beq	a3,a7,114dc <_free_r+0x270>
   11408:	00c62803          	lw	a6,12(a2)
   1140c:	0017e593          	ori	a1,a5,1
   11410:	00f70633          	add	a2,a4,a5
   11414:	0106a623          	sw	a6,12(a3)
   11418:	00d82423          	sw	a3,8(a6)
   1141c:	00b72223          	sw	a1,4(a4)
   11420:	00f62023          	sw	a5,0(a2)
   11424:	ee1ff06f          	j	11304 <_free_r+0x98>
   11428:	12059c63          	bnez	a1,11560 <_free_r+0x2f4>
   1142c:	00862583          	lw	a1,8(a2)
   11430:	00c62603          	lw	a2,12(a2)
   11434:	00f686b3          	add	a3,a3,a5
   11438:	0016e793          	ori	a5,a3,1
   1143c:	00c5a623          	sw	a2,12(a1)
   11440:	00b62423          	sw	a1,8(a2)
   11444:	00f72223          	sw	a5,4(a4)
   11448:	00d70733          	add	a4,a4,a3
   1144c:	00d72023          	sw	a3,0(a4)
   11450:	ef9ff06f          	j	11348 <_free_r+0xdc>
   11454:	0015f593          	andi	a1,a1,1
   11458:	00d786b3          	add	a3,a5,a3
   1145c:	02059063          	bnez	a1,1147c <_free_r+0x210>
   11460:	ff842583          	lw	a1,-8(s0)
   11464:	40b70733          	sub	a4,a4,a1
   11468:	00c72783          	lw	a5,12(a4)
   1146c:	00872603          	lw	a2,8(a4)
   11470:	00b686b3          	add	a3,a3,a1
   11474:	00f62623          	sw	a5,12(a2)
   11478:	00c7a423          	sw	a2,8(a5)
   1147c:	0016e793          	ori	a5,a3,1
   11480:	00f72223          	sw	a5,4(a4)
   11484:	00e52423          	sw	a4,8(a0)
   11488:	0941a783          	lw	a5,148(gp) # 22914 <__malloc_trim_threshold>
   1148c:	eaf6eee3          	bltu	a3,a5,11348 <_free_r+0xdc>
   11490:	0ac1a583          	lw	a1,172(gp) # 2292c <__malloc_top_pad>
   11494:	00048513          	mv	a0,s1
   11498:	c9dff0ef          	jal	11134 <_malloc_trim_r>
   1149c:	eadff06f          	j	11348 <_free_r+0xdc>
   114a0:	00d787b3          	add	a5,a5,a3
   114a4:	f5dff06f          	j	11400 <_free_r+0x194>
   114a8:	01400613          	li	a2,20
   114ac:	02d67063          	bgeu	a2,a3,114cc <_free_r+0x260>
   114b0:	05400613          	li	a2,84
   114b4:	06d66463          	bltu	a2,a3,1151c <_free_r+0x2b0>
   114b8:	00c7d693          	srli	a3,a5,0xc
   114bc:	06f68593          	addi	a1,a3,111
   114c0:	06e68613          	addi	a2,a3,110
   114c4:	00359593          	slli	a1,a1,0x3
   114c8:	ed5ff06f          	j	1139c <_free_r+0x130>
   114cc:	05c68593          	addi	a1,a3,92
   114d0:	05b68613          	addi	a2,a3,91
   114d4:	00359593          	slli	a1,a1,0x3
   114d8:	ec5ff06f          	j	1139c <_free_r+0x130>
   114dc:	00e52a23          	sw	a4,20(a0)
   114e0:	00e52823          	sw	a4,16(a0)
   114e4:	0017e693          	ori	a3,a5,1
   114e8:	01172623          	sw	a7,12(a4)
   114ec:	01172423          	sw	a7,8(a4)
   114f0:	00d72223          	sw	a3,4(a4)
   114f4:	00f70733          	add	a4,a4,a5
   114f8:	00f72023          	sw	a5,0(a4)
   114fc:	e4dff06f          	j	11348 <_free_r+0xdc>
   11500:	00452803          	lw	a6,4(a0)
   11504:	40265613          	srai	a2,a2,0x2
   11508:	00100793          	li	a5,1
   1150c:	00c797b3          	sll	a5,a5,a2
   11510:	0107e7b3          	or	a5,a5,a6
   11514:	00f52223          	sw	a5,4(a0)
   11518:	eb1ff06f          	j	113c8 <_free_r+0x15c>
   1151c:	15400613          	li	a2,340
   11520:	00d66c63          	bltu	a2,a3,11538 <_free_r+0x2cc>
   11524:	00f7d693          	srli	a3,a5,0xf
   11528:	07868593          	addi	a1,a3,120
   1152c:	07768613          	addi	a2,a3,119
   11530:	00359593          	slli	a1,a1,0x3
   11534:	e69ff06f          	j	1139c <_free_r+0x130>
   11538:	55400613          	li	a2,1364
   1153c:	00d66c63          	bltu	a2,a3,11554 <_free_r+0x2e8>
   11540:	0127d693          	srli	a3,a5,0x12
   11544:	07d68593          	addi	a1,a3,125
   11548:	07c68613          	addi	a2,a3,124
   1154c:	00359593          	slli	a1,a1,0x3
   11550:	e4dff06f          	j	1139c <_free_r+0x130>
   11554:	3f800593          	li	a1,1016
   11558:	07e00613          	li	a2,126
   1155c:	e41ff06f          	j	1139c <_free_r+0x130>
   11560:	0017e693          	ori	a3,a5,1
   11564:	00d72223          	sw	a3,4(a4)
   11568:	00f62023          	sw	a5,0(a2)
   1156c:	dddff06f          	j	11348 <_free_r+0xdc>

00011570 <_malloc_r>:
   11570:	fd010113          	addi	sp,sp,-48
   11574:	03212023          	sw	s2,32(sp)
   11578:	02112623          	sw	ra,44(sp)
   1157c:	02812423          	sw	s0,40(sp)
   11580:	02912223          	sw	s1,36(sp)
   11584:	01312e23          	sw	s3,28(sp)
   11588:	00b58793          	addi	a5,a1,11
   1158c:	01600713          	li	a4,22
   11590:	00050913          	mv	s2,a0
   11594:	08f76263          	bltu	a4,a5,11618 <_malloc_r+0xa8>
   11598:	01000793          	li	a5,16
   1159c:	20b7e663          	bltu	a5,a1,117a8 <_malloc_r+0x238>
   115a0:	798000ef          	jal	11d38 <__malloc_lock>
   115a4:	01800793          	li	a5,24
   115a8:	00200593          	li	a1,2
   115ac:	01000493          	li	s1,16
   115b0:	00011997          	auipc	s3,0x11
   115b4:	d8098993          	addi	s3,s3,-640 # 22330 <__malloc_av_>
   115b8:	00f987b3          	add	a5,s3,a5
   115bc:	0047a403          	lw	s0,4(a5)
   115c0:	ff878713          	addi	a4,a5,-8
   115c4:	34e40a63          	beq	s0,a4,11918 <_malloc_r+0x3a8>
   115c8:	00442783          	lw	a5,4(s0)
   115cc:	00c42683          	lw	a3,12(s0)
   115d0:	00842603          	lw	a2,8(s0)
   115d4:	ffc7f793          	andi	a5,a5,-4
   115d8:	00f407b3          	add	a5,s0,a5
   115dc:	0047a703          	lw	a4,4(a5)
   115e0:	00d62623          	sw	a3,12(a2)
   115e4:	00c6a423          	sw	a2,8(a3)
   115e8:	00176713          	ori	a4,a4,1
   115ec:	00090513          	mv	a0,s2
   115f0:	00e7a223          	sw	a4,4(a5)
   115f4:	748000ef          	jal	11d3c <__malloc_unlock>
   115f8:	00840513          	addi	a0,s0,8
   115fc:	02c12083          	lw	ra,44(sp)
   11600:	02812403          	lw	s0,40(sp)
   11604:	02412483          	lw	s1,36(sp)
   11608:	02012903          	lw	s2,32(sp)
   1160c:	01c12983          	lw	s3,28(sp)
   11610:	03010113          	addi	sp,sp,48
   11614:	00008067          	ret
   11618:	ff87f493          	andi	s1,a5,-8
   1161c:	1807c663          	bltz	a5,117a8 <_malloc_r+0x238>
   11620:	18b4e463          	bltu	s1,a1,117a8 <_malloc_r+0x238>
   11624:	714000ef          	jal	11d38 <__malloc_lock>
   11628:	1f700793          	li	a5,503
   1162c:	4097f063          	bgeu	a5,s1,11a2c <_malloc_r+0x4bc>
   11630:	0094d793          	srli	a5,s1,0x9
   11634:	18078263          	beqz	a5,117b8 <_malloc_r+0x248>
   11638:	00400713          	li	a4,4
   1163c:	34f76663          	bltu	a4,a5,11988 <_malloc_r+0x418>
   11640:	0064d793          	srli	a5,s1,0x6
   11644:	03978593          	addi	a1,a5,57
   11648:	03878813          	addi	a6,a5,56
   1164c:	00359613          	slli	a2,a1,0x3
   11650:	00011997          	auipc	s3,0x11
   11654:	ce098993          	addi	s3,s3,-800 # 22330 <__malloc_av_>
   11658:	00c98633          	add	a2,s3,a2
   1165c:	00462403          	lw	s0,4(a2)
   11660:	ff860613          	addi	a2,a2,-8
   11664:	02860863          	beq	a2,s0,11694 <_malloc_r+0x124>
   11668:	00f00513          	li	a0,15
   1166c:	0140006f          	j	11680 <_malloc_r+0x110>
   11670:	00c42683          	lw	a3,12(s0)
   11674:	28075e63          	bgez	a4,11910 <_malloc_r+0x3a0>
   11678:	00d60e63          	beq	a2,a3,11694 <_malloc_r+0x124>
   1167c:	00068413          	mv	s0,a3
   11680:	00442783          	lw	a5,4(s0)
   11684:	ffc7f793          	andi	a5,a5,-4
   11688:	40978733          	sub	a4,a5,s1
   1168c:	fee552e3          	bge	a0,a4,11670 <_malloc_r+0x100>
   11690:	00080593          	mv	a1,a6
   11694:	0109a403          	lw	s0,16(s3)
   11698:	00011897          	auipc	a7,0x11
   1169c:	ca088893          	addi	a7,a7,-864 # 22338 <__malloc_av_+0x8>
   116a0:	27140463          	beq	s0,a7,11908 <_malloc_r+0x398>
   116a4:	00442783          	lw	a5,4(s0)
   116a8:	00f00693          	li	a3,15
   116ac:	ffc7f793          	andi	a5,a5,-4
   116b0:	40978733          	sub	a4,a5,s1
   116b4:	38e6c263          	blt	a3,a4,11a38 <_malloc_r+0x4c8>
   116b8:	0119aa23          	sw	a7,20(s3)
   116bc:	0119a823          	sw	a7,16(s3)
   116c0:	34075663          	bgez	a4,11a0c <_malloc_r+0x49c>
   116c4:	1ff00713          	li	a4,511
   116c8:	0049a503          	lw	a0,4(s3)
   116cc:	24f76e63          	bltu	a4,a5,11928 <_malloc_r+0x3b8>
   116d0:	ff87f713          	andi	a4,a5,-8
   116d4:	00870713          	addi	a4,a4,8
   116d8:	00e98733          	add	a4,s3,a4
   116dc:	00072683          	lw	a3,0(a4)
   116e0:	0057d613          	srli	a2,a5,0x5
   116e4:	00100793          	li	a5,1
   116e8:	00c797b3          	sll	a5,a5,a2
   116ec:	00f56533          	or	a0,a0,a5
   116f0:	ff870793          	addi	a5,a4,-8
   116f4:	00f42623          	sw	a5,12(s0)
   116f8:	00d42423          	sw	a3,8(s0)
   116fc:	00a9a223          	sw	a0,4(s3)
   11700:	00872023          	sw	s0,0(a4)
   11704:	0086a623          	sw	s0,12(a3)
   11708:	4025d793          	srai	a5,a1,0x2
   1170c:	00100613          	li	a2,1
   11710:	00f61633          	sll	a2,a2,a5
   11714:	0ac56a63          	bltu	a0,a2,117c8 <_malloc_r+0x258>
   11718:	00a677b3          	and	a5,a2,a0
   1171c:	02079463          	bnez	a5,11744 <_malloc_r+0x1d4>
   11720:	00161613          	slli	a2,a2,0x1
   11724:	ffc5f593          	andi	a1,a1,-4
   11728:	00a677b3          	and	a5,a2,a0
   1172c:	00458593          	addi	a1,a1,4
   11730:	00079a63          	bnez	a5,11744 <_malloc_r+0x1d4>
   11734:	00161613          	slli	a2,a2,0x1
   11738:	00a677b3          	and	a5,a2,a0
   1173c:	00458593          	addi	a1,a1,4
   11740:	fe078ae3          	beqz	a5,11734 <_malloc_r+0x1c4>
   11744:	00f00813          	li	a6,15
   11748:	00359313          	slli	t1,a1,0x3
   1174c:	00698333          	add	t1,s3,t1
   11750:	00030513          	mv	a0,t1
   11754:	00c52783          	lw	a5,12(a0)
   11758:	00058e13          	mv	t3,a1
   1175c:	24f50863          	beq	a0,a5,119ac <_malloc_r+0x43c>
   11760:	0047a703          	lw	a4,4(a5)
   11764:	00078413          	mv	s0,a5
   11768:	00c7a783          	lw	a5,12(a5)
   1176c:	ffc77713          	andi	a4,a4,-4
   11770:	409706b3          	sub	a3,a4,s1
   11774:	24d84863          	blt	a6,a3,119c4 <_malloc_r+0x454>
   11778:	fe06c2e3          	bltz	a3,1175c <_malloc_r+0x1ec>
   1177c:	00e40733          	add	a4,s0,a4
   11780:	00472683          	lw	a3,4(a4)
   11784:	00842603          	lw	a2,8(s0)
   11788:	00090513          	mv	a0,s2
   1178c:	0016e693          	ori	a3,a3,1
   11790:	00d72223          	sw	a3,4(a4)
   11794:	00f62623          	sw	a5,12(a2)
   11798:	00c7a423          	sw	a2,8(a5)
   1179c:	5a0000ef          	jal	11d3c <__malloc_unlock>
   117a0:	00840513          	addi	a0,s0,8
   117a4:	e59ff06f          	j	115fc <_malloc_r+0x8c>
   117a8:	00c00793          	li	a5,12
   117ac:	00f92023          	sw	a5,0(s2)
   117b0:	00000513          	li	a0,0
   117b4:	e49ff06f          	j	115fc <_malloc_r+0x8c>
   117b8:	20000613          	li	a2,512
   117bc:	04000593          	li	a1,64
   117c0:	03f00813          	li	a6,63
   117c4:	e8dff06f          	j	11650 <_malloc_r+0xe0>
   117c8:	0089a403          	lw	s0,8(s3)
   117cc:	01612823          	sw	s6,16(sp)
   117d0:	00442783          	lw	a5,4(s0)
   117d4:	ffc7fb13          	andi	s6,a5,-4
   117d8:	009b6863          	bltu	s6,s1,117e8 <_malloc_r+0x278>
   117dc:	409b0733          	sub	a4,s6,s1
   117e0:	00f00793          	li	a5,15
   117e4:	0ee7c063          	blt	a5,a4,118c4 <_malloc_r+0x354>
   117e8:	01912223          	sw	s9,4(sp)
   117ec:	09018c93          	addi	s9,gp,144 # 22910 <__malloc_sbrk_base>
   117f0:	000ca703          	lw	a4,0(s9)
   117f4:	01412c23          	sw	s4,24(sp)
   117f8:	01512a23          	sw	s5,20(sp)
   117fc:	01712623          	sw	s7,12(sp)
   11800:	0ac1aa83          	lw	s5,172(gp) # 2292c <__malloc_top_pad>
   11804:	fff00793          	li	a5,-1
   11808:	01640a33          	add	s4,s0,s6
   1180c:	01548ab3          	add	s5,s1,s5
   11810:	3cf70a63          	beq	a4,a5,11be4 <_malloc_r+0x674>
   11814:	000017b7          	lui	a5,0x1
   11818:	00f78793          	addi	a5,a5,15 # 100f <exit-0xf0a5>
   1181c:	00fa8ab3          	add	s5,s5,a5
   11820:	fffff7b7          	lui	a5,0xfffff
   11824:	00fafab3          	and	s5,s5,a5
   11828:	000a8593          	mv	a1,s5
   1182c:	00090513          	mv	a0,s2
   11830:	308050ef          	jal	16b38 <_sbrk_r>
   11834:	fff00793          	li	a5,-1
   11838:	00050b93          	mv	s7,a0
   1183c:	44f50e63          	beq	a0,a5,11c98 <_malloc_r+0x728>
   11840:	01812423          	sw	s8,8(sp)
   11844:	25456263          	bltu	a0,s4,11a88 <_malloc_r+0x518>
   11848:	2f818c13          	addi	s8,gp,760 # 22b78 <__malloc_current_mallinfo>
   1184c:	000c2583          	lw	a1,0(s8)
   11850:	00ba85b3          	add	a1,s5,a1
   11854:	00bc2023          	sw	a1,0(s8)
   11858:	00058713          	mv	a4,a1
   1185c:	2aaa1a63          	bne	s4,a0,11b10 <_malloc_r+0x5a0>
   11860:	01451793          	slli	a5,a0,0x14
   11864:	2a079663          	bnez	a5,11b10 <_malloc_r+0x5a0>
   11868:	0089ab83          	lw	s7,8(s3)
   1186c:	015b07b3          	add	a5,s6,s5
   11870:	0017e793          	ori	a5,a5,1
   11874:	00fba223          	sw	a5,4(s7)
   11878:	0a818713          	addi	a4,gp,168 # 22928 <__malloc_max_sbrked_mem>
   1187c:	00072683          	lw	a3,0(a4)
   11880:	00b6f463          	bgeu	a3,a1,11888 <_malloc_r+0x318>
   11884:	00b72023          	sw	a1,0(a4)
   11888:	0a418713          	addi	a4,gp,164 # 22924 <__malloc_max_total_mem>
   1188c:	00072683          	lw	a3,0(a4)
   11890:	00b6f463          	bgeu	a3,a1,11898 <_malloc_r+0x328>
   11894:	00b72023          	sw	a1,0(a4)
   11898:	00812c03          	lw	s8,8(sp)
   1189c:	000b8413          	mv	s0,s7
   118a0:	ffc7f793          	andi	a5,a5,-4
   118a4:	40978733          	sub	a4,a5,s1
   118a8:	3897ea63          	bltu	a5,s1,11c3c <_malloc_r+0x6cc>
   118ac:	00f00793          	li	a5,15
   118b0:	38e7d663          	bge	a5,a4,11c3c <_malloc_r+0x6cc>
   118b4:	01812a03          	lw	s4,24(sp)
   118b8:	01412a83          	lw	s5,20(sp)
   118bc:	00c12b83          	lw	s7,12(sp)
   118c0:	00412c83          	lw	s9,4(sp)
   118c4:	0014e793          	ori	a5,s1,1
   118c8:	00f42223          	sw	a5,4(s0)
   118cc:	009404b3          	add	s1,s0,s1
   118d0:	0099a423          	sw	s1,8(s3)
   118d4:	00176713          	ori	a4,a4,1
   118d8:	00090513          	mv	a0,s2
   118dc:	00e4a223          	sw	a4,4(s1)
   118e0:	45c000ef          	jal	11d3c <__malloc_unlock>
   118e4:	02c12083          	lw	ra,44(sp)
   118e8:	00840513          	addi	a0,s0,8
   118ec:	02812403          	lw	s0,40(sp)
   118f0:	01012b03          	lw	s6,16(sp)
   118f4:	02412483          	lw	s1,36(sp)
   118f8:	02012903          	lw	s2,32(sp)
   118fc:	01c12983          	lw	s3,28(sp)
   11900:	03010113          	addi	sp,sp,48
   11904:	00008067          	ret
   11908:	0049a503          	lw	a0,4(s3)
   1190c:	dfdff06f          	j	11708 <_malloc_r+0x198>
   11910:	00842603          	lw	a2,8(s0)
   11914:	cc5ff06f          	j	115d8 <_malloc_r+0x68>
   11918:	00c7a403          	lw	s0,12(a5) # fffff00c <__BSS_END__+0xfffdc2dc>
   1191c:	00258593          	addi	a1,a1,2
   11920:	d6878ae3          	beq	a5,s0,11694 <_malloc_r+0x124>
   11924:	ca5ff06f          	j	115c8 <_malloc_r+0x58>
   11928:	0097d713          	srli	a4,a5,0x9
   1192c:	00400693          	li	a3,4
   11930:	14e6f263          	bgeu	a3,a4,11a74 <_malloc_r+0x504>
   11934:	01400693          	li	a3,20
   11938:	32e6e463          	bltu	a3,a4,11c60 <_malloc_r+0x6f0>
   1193c:	05c70613          	addi	a2,a4,92
   11940:	05b70693          	addi	a3,a4,91
   11944:	00361613          	slli	a2,a2,0x3
   11948:	00c98633          	add	a2,s3,a2
   1194c:	00062703          	lw	a4,0(a2)
   11950:	ff860613          	addi	a2,a2,-8
   11954:	00e61863          	bne	a2,a4,11964 <_malloc_r+0x3f4>
   11958:	2940006f          	j	11bec <_malloc_r+0x67c>
   1195c:	00872703          	lw	a4,8(a4)
   11960:	00e60863          	beq	a2,a4,11970 <_malloc_r+0x400>
   11964:	00472683          	lw	a3,4(a4)
   11968:	ffc6f693          	andi	a3,a3,-4
   1196c:	fed7e8e3          	bltu	a5,a3,1195c <_malloc_r+0x3ec>
   11970:	00c72603          	lw	a2,12(a4)
   11974:	00c42623          	sw	a2,12(s0)
   11978:	00e42423          	sw	a4,8(s0)
   1197c:	00862423          	sw	s0,8(a2)
   11980:	00872623          	sw	s0,12(a4)
   11984:	d85ff06f          	j	11708 <_malloc_r+0x198>
   11988:	01400713          	li	a4,20
   1198c:	10f77863          	bgeu	a4,a5,11a9c <_malloc_r+0x52c>
   11990:	05400713          	li	a4,84
   11994:	2ef76463          	bltu	a4,a5,11c7c <_malloc_r+0x70c>
   11998:	00c4d793          	srli	a5,s1,0xc
   1199c:	06f78593          	addi	a1,a5,111
   119a0:	06e78813          	addi	a6,a5,110
   119a4:	00359613          	slli	a2,a1,0x3
   119a8:	ca9ff06f          	j	11650 <_malloc_r+0xe0>
   119ac:	001e0e13          	addi	t3,t3,1
   119b0:	003e7793          	andi	a5,t3,3
   119b4:	00850513          	addi	a0,a0,8
   119b8:	10078063          	beqz	a5,11ab8 <_malloc_r+0x548>
   119bc:	00c52783          	lw	a5,12(a0)
   119c0:	d9dff06f          	j	1175c <_malloc_r+0x1ec>
   119c4:	00842603          	lw	a2,8(s0)
   119c8:	0014e593          	ori	a1,s1,1
   119cc:	00b42223          	sw	a1,4(s0)
   119d0:	00f62623          	sw	a5,12(a2)
   119d4:	00c7a423          	sw	a2,8(a5)
   119d8:	009404b3          	add	s1,s0,s1
   119dc:	0099aa23          	sw	s1,20(s3)
   119e0:	0099a823          	sw	s1,16(s3)
   119e4:	0016e793          	ori	a5,a3,1
   119e8:	0114a623          	sw	a7,12(s1)
   119ec:	0114a423          	sw	a7,8(s1)
   119f0:	00f4a223          	sw	a5,4(s1)
   119f4:	00e40733          	add	a4,s0,a4
   119f8:	00090513          	mv	a0,s2
   119fc:	00d72023          	sw	a3,0(a4)
   11a00:	33c000ef          	jal	11d3c <__malloc_unlock>
   11a04:	00840513          	addi	a0,s0,8
   11a08:	bf5ff06f          	j	115fc <_malloc_r+0x8c>
   11a0c:	00f407b3          	add	a5,s0,a5
   11a10:	0047a703          	lw	a4,4(a5)
   11a14:	00090513          	mv	a0,s2
   11a18:	00176713          	ori	a4,a4,1
   11a1c:	00e7a223          	sw	a4,4(a5)
   11a20:	31c000ef          	jal	11d3c <__malloc_unlock>
   11a24:	00840513          	addi	a0,s0,8
   11a28:	bd5ff06f          	j	115fc <_malloc_r+0x8c>
   11a2c:	0034d593          	srli	a1,s1,0x3
   11a30:	00848793          	addi	a5,s1,8
   11a34:	b7dff06f          	j	115b0 <_malloc_r+0x40>
   11a38:	0014e693          	ori	a3,s1,1
   11a3c:	00d42223          	sw	a3,4(s0)
   11a40:	009404b3          	add	s1,s0,s1
   11a44:	0099aa23          	sw	s1,20(s3)
   11a48:	0099a823          	sw	s1,16(s3)
   11a4c:	00176693          	ori	a3,a4,1
   11a50:	0114a623          	sw	a7,12(s1)
   11a54:	0114a423          	sw	a7,8(s1)
   11a58:	00d4a223          	sw	a3,4(s1)
   11a5c:	00f407b3          	add	a5,s0,a5
   11a60:	00090513          	mv	a0,s2
   11a64:	00e7a023          	sw	a4,0(a5)
   11a68:	2d4000ef          	jal	11d3c <__malloc_unlock>
   11a6c:	00840513          	addi	a0,s0,8
   11a70:	b8dff06f          	j	115fc <_malloc_r+0x8c>
   11a74:	0067d713          	srli	a4,a5,0x6
   11a78:	03970613          	addi	a2,a4,57
   11a7c:	03870693          	addi	a3,a4,56
   11a80:	00361613          	slli	a2,a2,0x3
   11a84:	ec5ff06f          	j	11948 <_malloc_r+0x3d8>
   11a88:	07340c63          	beq	s0,s3,11b00 <_malloc_r+0x590>
   11a8c:	0089a403          	lw	s0,8(s3)
   11a90:	00812c03          	lw	s8,8(sp)
   11a94:	00442783          	lw	a5,4(s0)
   11a98:	e09ff06f          	j	118a0 <_malloc_r+0x330>
   11a9c:	05c78593          	addi	a1,a5,92
   11aa0:	05b78813          	addi	a6,a5,91
   11aa4:	00359613          	slli	a2,a1,0x3
   11aa8:	ba9ff06f          	j	11650 <_malloc_r+0xe0>
   11aac:	00832783          	lw	a5,8(t1)
   11ab0:	fff58593          	addi	a1,a1,-1
   11ab4:	26679e63          	bne	a5,t1,11d30 <_malloc_r+0x7c0>
   11ab8:	0035f793          	andi	a5,a1,3
   11abc:	ff830313          	addi	t1,t1,-8
   11ac0:	fe0796e3          	bnez	a5,11aac <_malloc_r+0x53c>
   11ac4:	0049a703          	lw	a4,4(s3)
   11ac8:	fff64793          	not	a5,a2
   11acc:	00e7f7b3          	and	a5,a5,a4
   11ad0:	00f9a223          	sw	a5,4(s3)
   11ad4:	00161613          	slli	a2,a2,0x1
   11ad8:	cec7e8e3          	bltu	a5,a2,117c8 <_malloc_r+0x258>
   11adc:	ce0606e3          	beqz	a2,117c8 <_malloc_r+0x258>
   11ae0:	00f67733          	and	a4,a2,a5
   11ae4:	00071a63          	bnez	a4,11af8 <_malloc_r+0x588>
   11ae8:	00161613          	slli	a2,a2,0x1
   11aec:	00f67733          	and	a4,a2,a5
   11af0:	004e0e13          	addi	t3,t3,4
   11af4:	fe070ae3          	beqz	a4,11ae8 <_malloc_r+0x578>
   11af8:	000e0593          	mv	a1,t3
   11afc:	c4dff06f          	j	11748 <_malloc_r+0x1d8>
   11b00:	2f818c13          	addi	s8,gp,760 # 22b78 <__malloc_current_mallinfo>
   11b04:	000c2703          	lw	a4,0(s8)
   11b08:	00ea8733          	add	a4,s5,a4
   11b0c:	00ec2023          	sw	a4,0(s8)
   11b10:	000ca683          	lw	a3,0(s9)
   11b14:	fff00793          	li	a5,-1
   11b18:	18f68663          	beq	a3,a5,11ca4 <_malloc_r+0x734>
   11b1c:	414b87b3          	sub	a5,s7,s4
   11b20:	00e787b3          	add	a5,a5,a4
   11b24:	00fc2023          	sw	a5,0(s8)
   11b28:	007bfc93          	andi	s9,s7,7
   11b2c:	0c0c8c63          	beqz	s9,11c04 <_malloc_r+0x694>
   11b30:	419b8bb3          	sub	s7,s7,s9
   11b34:	000017b7          	lui	a5,0x1
   11b38:	00878793          	addi	a5,a5,8 # 1008 <exit-0xf0ac>
   11b3c:	008b8b93          	addi	s7,s7,8
   11b40:	419785b3          	sub	a1,a5,s9
   11b44:	015b8ab3          	add	s5,s7,s5
   11b48:	415585b3          	sub	a1,a1,s5
   11b4c:	01459593          	slli	a1,a1,0x14
   11b50:	0145da13          	srli	s4,a1,0x14
   11b54:	000a0593          	mv	a1,s4
   11b58:	00090513          	mv	a0,s2
   11b5c:	7dd040ef          	jal	16b38 <_sbrk_r>
   11b60:	fff00793          	li	a5,-1
   11b64:	18f50063          	beq	a0,a5,11ce4 <_malloc_r+0x774>
   11b68:	41750533          	sub	a0,a0,s7
   11b6c:	01450ab3          	add	s5,a0,s4
   11b70:	000c2703          	lw	a4,0(s8)
   11b74:	0179a423          	sw	s7,8(s3)
   11b78:	001ae793          	ori	a5,s5,1
   11b7c:	00ea05b3          	add	a1,s4,a4
   11b80:	00bc2023          	sw	a1,0(s8)
   11b84:	00fba223          	sw	a5,4(s7)
   11b88:	cf3408e3          	beq	s0,s3,11878 <_malloc_r+0x308>
   11b8c:	00f00693          	li	a3,15
   11b90:	0b66f063          	bgeu	a3,s6,11c30 <_malloc_r+0x6c0>
   11b94:	00442703          	lw	a4,4(s0)
   11b98:	ff4b0793          	addi	a5,s6,-12
   11b9c:	ff87f793          	andi	a5,a5,-8
   11ba0:	00177713          	andi	a4,a4,1
   11ba4:	00f76733          	or	a4,a4,a5
   11ba8:	00e42223          	sw	a4,4(s0)
   11bac:	00500613          	li	a2,5
   11bb0:	00f40733          	add	a4,s0,a5
   11bb4:	00c72223          	sw	a2,4(a4)
   11bb8:	00c72423          	sw	a2,8(a4)
   11bbc:	00f6e663          	bltu	a3,a5,11bc8 <_malloc_r+0x658>
   11bc0:	004ba783          	lw	a5,4(s7)
   11bc4:	cb5ff06f          	j	11878 <_malloc_r+0x308>
   11bc8:	00840593          	addi	a1,s0,8
   11bcc:	00090513          	mv	a0,s2
   11bd0:	e9cff0ef          	jal	1126c <_free_r>
   11bd4:	0089ab83          	lw	s7,8(s3)
   11bd8:	000c2583          	lw	a1,0(s8)
   11bdc:	004ba783          	lw	a5,4(s7)
   11be0:	c99ff06f          	j	11878 <_malloc_r+0x308>
   11be4:	010a8a93          	addi	s5,s5,16
   11be8:	c41ff06f          	j	11828 <_malloc_r+0x2b8>
   11bec:	4026d693          	srai	a3,a3,0x2
   11bf0:	00100793          	li	a5,1
   11bf4:	00d797b3          	sll	a5,a5,a3
   11bf8:	00f56533          	or	a0,a0,a5
   11bfc:	00a9a223          	sw	a0,4(s3)
   11c00:	d75ff06f          	j	11974 <_malloc_r+0x404>
   11c04:	015b85b3          	add	a1,s7,s5
   11c08:	40b005b3          	neg	a1,a1
   11c0c:	01459593          	slli	a1,a1,0x14
   11c10:	0145da13          	srli	s4,a1,0x14
   11c14:	000a0593          	mv	a1,s4
   11c18:	00090513          	mv	a0,s2
   11c1c:	71d040ef          	jal	16b38 <_sbrk_r>
   11c20:	fff00793          	li	a5,-1
   11c24:	f4f512e3          	bne	a0,a5,11b68 <_malloc_r+0x5f8>
   11c28:	00000a13          	li	s4,0
   11c2c:	f45ff06f          	j	11b70 <_malloc_r+0x600>
   11c30:	00812c03          	lw	s8,8(sp)
   11c34:	00100793          	li	a5,1
   11c38:	00fba223          	sw	a5,4(s7)
   11c3c:	00090513          	mv	a0,s2
   11c40:	0fc000ef          	jal	11d3c <__malloc_unlock>
   11c44:	00000513          	li	a0,0
   11c48:	01812a03          	lw	s4,24(sp)
   11c4c:	01412a83          	lw	s5,20(sp)
   11c50:	01012b03          	lw	s6,16(sp)
   11c54:	00c12b83          	lw	s7,12(sp)
   11c58:	00412c83          	lw	s9,4(sp)
   11c5c:	9a1ff06f          	j	115fc <_malloc_r+0x8c>
   11c60:	05400693          	li	a3,84
   11c64:	04e6e463          	bltu	a3,a4,11cac <_malloc_r+0x73c>
   11c68:	00c7d713          	srli	a4,a5,0xc
   11c6c:	06f70613          	addi	a2,a4,111
   11c70:	06e70693          	addi	a3,a4,110
   11c74:	00361613          	slli	a2,a2,0x3
   11c78:	cd1ff06f          	j	11948 <_malloc_r+0x3d8>
   11c7c:	15400713          	li	a4,340
   11c80:	04f76463          	bltu	a4,a5,11cc8 <_malloc_r+0x758>
   11c84:	00f4d793          	srli	a5,s1,0xf
   11c88:	07878593          	addi	a1,a5,120
   11c8c:	07778813          	addi	a6,a5,119
   11c90:	00359613          	slli	a2,a1,0x3
   11c94:	9bdff06f          	j	11650 <_malloc_r+0xe0>
   11c98:	0089a403          	lw	s0,8(s3)
   11c9c:	00442783          	lw	a5,4(s0)
   11ca0:	c01ff06f          	j	118a0 <_malloc_r+0x330>
   11ca4:	017ca023          	sw	s7,0(s9)
   11ca8:	e81ff06f          	j	11b28 <_malloc_r+0x5b8>
   11cac:	15400693          	li	a3,340
   11cb0:	04e6e463          	bltu	a3,a4,11cf8 <_malloc_r+0x788>
   11cb4:	00f7d713          	srli	a4,a5,0xf
   11cb8:	07870613          	addi	a2,a4,120
   11cbc:	07770693          	addi	a3,a4,119
   11cc0:	00361613          	slli	a2,a2,0x3
   11cc4:	c85ff06f          	j	11948 <_malloc_r+0x3d8>
   11cc8:	55400713          	li	a4,1364
   11ccc:	04f76463          	bltu	a4,a5,11d14 <_malloc_r+0x7a4>
   11cd0:	0124d793          	srli	a5,s1,0x12
   11cd4:	07d78593          	addi	a1,a5,125
   11cd8:	07c78813          	addi	a6,a5,124
   11cdc:	00359613          	slli	a2,a1,0x3
   11ce0:	971ff06f          	j	11650 <_malloc_r+0xe0>
   11ce4:	ff8c8c93          	addi	s9,s9,-8
   11ce8:	019a8ab3          	add	s5,s5,s9
   11cec:	417a8ab3          	sub	s5,s5,s7
   11cf0:	00000a13          	li	s4,0
   11cf4:	e7dff06f          	j	11b70 <_malloc_r+0x600>
   11cf8:	55400693          	li	a3,1364
   11cfc:	02e6e463          	bltu	a3,a4,11d24 <_malloc_r+0x7b4>
   11d00:	0127d713          	srli	a4,a5,0x12
   11d04:	07d70613          	addi	a2,a4,125
   11d08:	07c70693          	addi	a3,a4,124
   11d0c:	00361613          	slli	a2,a2,0x3
   11d10:	c39ff06f          	j	11948 <_malloc_r+0x3d8>
   11d14:	3f800613          	li	a2,1016
   11d18:	07f00593          	li	a1,127
   11d1c:	07e00813          	li	a6,126
   11d20:	931ff06f          	j	11650 <_malloc_r+0xe0>
   11d24:	3f800613          	li	a2,1016
   11d28:	07e00693          	li	a3,126
   11d2c:	c1dff06f          	j	11948 <_malloc_r+0x3d8>
   11d30:	0049a783          	lw	a5,4(s3)
   11d34:	da1ff06f          	j	11ad4 <_malloc_r+0x564>

00011d38 <__malloc_lock>:
   11d38:	00008067          	ret

00011d3c <__malloc_unlock>:
   11d3c:	00008067          	ret

00011d40 <_vfprintf_r>:
   11d40:	e3010113          	addi	sp,sp,-464
   11d44:	1c112623          	sw	ra,460(sp)
   11d48:	1c812423          	sw	s0,456(sp)
   11d4c:	1c912223          	sw	s1,452(sp)
   11d50:	1d212023          	sw	s2,448(sp)
   11d54:	00058493          	mv	s1,a1
   11d58:	00060913          	mv	s2,a2
   11d5c:	00d12a23          	sw	a3,20(sp)
   11d60:	00050413          	mv	s0,a0
   11d64:	00a12423          	sw	a0,8(sp)
   11d68:	5c1040ef          	jal	16b28 <_localeconv_r>
   11d6c:	00052703          	lw	a4,0(a0)
   11d70:	00070513          	mv	a0,a4
   11d74:	02e12623          	sw	a4,44(sp)
   11d78:	9e4ff0ef          	jal	10f5c <strlen>
   11d7c:	02a12423          	sw	a0,40(sp)
   11d80:	0c012823          	sw	zero,208(sp)
   11d84:	0c012a23          	sw	zero,212(sp)
   11d88:	0c012c23          	sw	zero,216(sp)
   11d8c:	0c012e23          	sw	zero,220(sp)
   11d90:	00040863          	beqz	s0,11da0 <_vfprintf_r+0x60>
   11d94:	03442703          	lw	a4,52(s0)
   11d98:	00071463          	bnez	a4,11da0 <_vfprintf_r+0x60>
   11d9c:	10d0106f          	j	136a8 <_vfprintf_r+0x1968>
   11da0:	00c49703          	lh	a4,12(s1)
   11da4:	01271693          	slli	a3,a4,0x12
   11da8:	0206c663          	bltz	a3,11dd4 <_vfprintf_r+0x94>
   11dac:	0644a683          	lw	a3,100(s1)
   11db0:	000025b7          	lui	a1,0x2
   11db4:	ffffe637          	lui	a2,0xffffe
   11db8:	00b76733          	or	a4,a4,a1
   11dbc:	fff60613          	addi	a2,a2,-1 # ffffdfff <__BSS_END__+0xfffdb2cf>
   11dc0:	01071713          	slli	a4,a4,0x10
   11dc4:	41075713          	srai	a4,a4,0x10
   11dc8:	00c6f6b3          	and	a3,a3,a2
   11dcc:	00e49623          	sh	a4,12(s1)
   11dd0:	06d4a223          	sw	a3,100(s1)
   11dd4:	00877693          	andi	a3,a4,8
   11dd8:	2e068e63          	beqz	a3,120d4 <_vfprintf_r+0x394>
   11ddc:	0104a683          	lw	a3,16(s1)
   11de0:	2e068a63          	beqz	a3,120d4 <_vfprintf_r+0x394>
   11de4:	01a77713          	andi	a4,a4,26
   11de8:	00a00693          	li	a3,10
   11dec:	30d70663          	beq	a4,a3,120f8 <_vfprintf_r+0x3b8>
   11df0:	1b312e23          	sw	s3,444(sp)
   11df4:	1b412c23          	sw	s4,440(sp)
   11df8:	1ba12023          	sw	s10,416(sp)
   11dfc:	1b512a23          	sw	s5,436(sp)
   11e00:	1b612823          	sw	s6,432(sp)
   11e04:	1b712623          	sw	s7,428(sp)
   11e08:	1b812423          	sw	s8,424(sp)
   11e0c:	1b912223          	sw	s9,420(sp)
   11e10:	19b12e23          	sw	s11,412(sp)
   11e14:	00090d13          	mv	s10,s2
   11e18:	000d4703          	lbu	a4,0(s10)
   11e1c:	0ec10993          	addi	s3,sp,236
   11e20:	0d312223          	sw	s3,196(sp)
   11e24:	0c012623          	sw	zero,204(sp)
   11e28:	0c012423          	sw	zero,200(sp)
   11e2c:	00012e23          	sw	zero,28(sp)
   11e30:	02012823          	sw	zero,48(sp)
   11e34:	02012e23          	sw	zero,60(sp)
   11e38:	02012c23          	sw	zero,56(sp)
   11e3c:	04012223          	sw	zero,68(sp)
   11e40:	04012023          	sw	zero,64(sp)
   11e44:	00012623          	sw	zero,12(sp)
   11e48:	01000413          	li	s0,16
   11e4c:	00098a13          	mv	s4,s3
   11e50:	22070463          	beqz	a4,12078 <_vfprintf_r+0x338>
   11e54:	000d0a93          	mv	s5,s10
   11e58:	02500693          	li	a3,37
   11e5c:	3ed70e63          	beq	a4,a3,12258 <_vfprintf_r+0x518>
   11e60:	001ac703          	lbu	a4,1(s5)
   11e64:	001a8a93          	addi	s5,s5,1
   11e68:	fe071ae3          	bnez	a4,11e5c <_vfprintf_r+0x11c>
   11e6c:	41aa8933          	sub	s2,s5,s10
   11e70:	21aa8463          	beq	s5,s10,12078 <_vfprintf_r+0x338>
   11e74:	0cc12683          	lw	a3,204(sp)
   11e78:	0c812703          	lw	a4,200(sp)
   11e7c:	01aa2023          	sw	s10,0(s4)
   11e80:	012686b3          	add	a3,a3,s2
   11e84:	00170713          	addi	a4,a4,1
   11e88:	012a2223          	sw	s2,4(s4)
   11e8c:	0cd12623          	sw	a3,204(sp)
   11e90:	0ce12423          	sw	a4,200(sp)
   11e94:	00700693          	li	a3,7
   11e98:	008a0a13          	addi	s4,s4,8
   11e9c:	3ce6c663          	blt	a3,a4,12268 <_vfprintf_r+0x528>
   11ea0:	00c12783          	lw	a5,12(sp)
   11ea4:	000ac703          	lbu	a4,0(s5)
   11ea8:	012787b3          	add	a5,a5,s2
   11eac:	00f12623          	sw	a5,12(sp)
   11eb0:	1c070463          	beqz	a4,12078 <_vfprintf_r+0x338>
   11eb4:	001ac883          	lbu	a7,1(s5)
   11eb8:	0a0103a3          	sb	zero,167(sp)
   11ebc:	001a8a93          	addi	s5,s5,1
   11ec0:	fff00b13          	li	s6,-1
   11ec4:	00000b93          	li	s7,0
   11ec8:	00000c93          	li	s9,0
   11ecc:	05a00913          	li	s2,90
   11ed0:	001a8a93          	addi	s5,s5,1
   11ed4:	fe088793          	addi	a5,a7,-32
   11ed8:	04f96a63          	bltu	s2,a5,11f2c <_vfprintf_r+0x1ec>
   11edc:	0000f717          	auipc	a4,0xf
   11ee0:	dac70713          	addi	a4,a4,-596 # 20c88 <_exit+0x2d8>
   11ee4:	00279793          	slli	a5,a5,0x2
   11ee8:	00e787b3          	add	a5,a5,a4
   11eec:	0007a783          	lw	a5,0(a5)
   11ef0:	00e787b3          	add	a5,a5,a4
   11ef4:	00078067          	jr	a5
   11ef8:	00000b93          	li	s7,0
   11efc:	fd088793          	addi	a5,a7,-48
   11f00:	00900693          	li	a3,9
   11f04:	000ac883          	lbu	a7,0(s5)
   11f08:	002b9713          	slli	a4,s7,0x2
   11f0c:	01770bb3          	add	s7,a4,s7
   11f10:	001b9b93          	slli	s7,s7,0x1
   11f14:	01778bb3          	add	s7,a5,s7
   11f18:	fd088793          	addi	a5,a7,-48
   11f1c:	001a8a93          	addi	s5,s5,1
   11f20:	fef6f2e3          	bgeu	a3,a5,11f04 <_vfprintf_r+0x1c4>
   11f24:	fe088793          	addi	a5,a7,-32
   11f28:	faf97ae3          	bgeu	s2,a5,11edc <_vfprintf_r+0x19c>
   11f2c:	14088663          	beqz	a7,12078 <_vfprintf_r+0x338>
   11f30:	13110623          	sb	a7,300(sp)
   11f34:	0a0103a3          	sb	zero,167(sp)
   11f38:	00100d93          	li	s11,1
   11f3c:	00100913          	li	s2,1
   11f40:	12c10d13          	addi	s10,sp,300
   11f44:	00012823          	sw	zero,16(sp)
   11f48:	00000b13          	li	s6,0
   11f4c:	02012223          	sw	zero,36(sp)
   11f50:	02012023          	sw	zero,32(sp)
   11f54:	00012c23          	sw	zero,24(sp)
   11f58:	002cf293          	andi	t0,s9,2
   11f5c:	00028463          	beqz	t0,11f64 <_vfprintf_r+0x224>
   11f60:	002d8d93          	addi	s11,s11,2
   11f64:	084cff93          	andi	t6,s9,132
   11f68:	0cc12603          	lw	a2,204(sp)
   11f6c:	000f9663          	bnez	t6,11f78 <_vfprintf_r+0x238>
   11f70:	41bb8733          	sub	a4,s7,s11
   11f74:	46e04ae3          	bgtz	a4,12be8 <_vfprintf_r+0xea8>
   11f78:	0a714703          	lbu	a4,167(sp)
   11f7c:	02070a63          	beqz	a4,11fb0 <_vfprintf_r+0x270>
   11f80:	0c812703          	lw	a4,200(sp)
   11f84:	0a710593          	addi	a1,sp,167
   11f88:	00ba2023          	sw	a1,0(s4)
   11f8c:	00160613          	addi	a2,a2,1
   11f90:	00100593          	li	a1,1
   11f94:	00170713          	addi	a4,a4,1
   11f98:	00ba2223          	sw	a1,4(s4)
   11f9c:	0cc12623          	sw	a2,204(sp)
   11fa0:	0ce12423          	sw	a4,200(sp)
   11fa4:	00700593          	li	a1,7
   11fa8:	008a0a13          	addi	s4,s4,8
   11fac:	3ee5c663          	blt	a1,a4,12398 <_vfprintf_r+0x658>
   11fb0:	02028a63          	beqz	t0,11fe4 <_vfprintf_r+0x2a4>
   11fb4:	0c812703          	lw	a4,200(sp)
   11fb8:	00200593          	li	a1,2
   11fbc:	00260613          	addi	a2,a2,2
   11fc0:	00170713          	addi	a4,a4,1
   11fc4:	0a810793          	addi	a5,sp,168
   11fc8:	00ba2223          	sw	a1,4(s4)
   11fcc:	00fa2023          	sw	a5,0(s4)
   11fd0:	0cc12623          	sw	a2,204(sp)
   11fd4:	0ce12423          	sw	a4,200(sp)
   11fd8:	00700593          	li	a1,7
   11fdc:	008a0a13          	addi	s4,s4,8
   11fe0:	50e5cae3          	blt	a1,a4,12cf4 <_vfprintf_r+0xfb4>
   11fe4:	08000713          	li	a4,128
   11fe8:	1eef86e3          	beq	t6,a4,129d4 <_vfprintf_r+0xc94>
   11fec:	412b0b33          	sub	s6,s6,s2
   11ff0:	2f6040e3          	bgtz	s6,12ad0 <_vfprintf_r+0xd90>
   11ff4:	100cf713          	andi	a4,s9,256
   11ff8:	040712e3          	bnez	a4,1283c <_vfprintf_r+0xafc>
   11ffc:	0c812783          	lw	a5,200(sp)
   12000:	01260633          	add	a2,a2,s2
   12004:	01aa2023          	sw	s10,0(s4)
   12008:	00178793          	addi	a5,a5,1
   1200c:	012a2223          	sw	s2,4(s4)
   12010:	0cc12623          	sw	a2,204(sp)
   12014:	0cf12423          	sw	a5,200(sp)
   12018:	00700713          	li	a4,7
   1201c:	4af74e63          	blt	a4,a5,124d8 <_vfprintf_r+0x798>
   12020:	008a0a13          	addi	s4,s4,8
   12024:	004cfe13          	andi	t3,s9,4
   12028:	000e0663          	beqz	t3,12034 <_vfprintf_r+0x2f4>
   1202c:	41bb8933          	sub	s2,s7,s11
   12030:	4f204ae3          	bgtz	s2,12d24 <_vfprintf_r+0xfe4>
   12034:	000b8313          	mv	t1,s7
   12038:	01bbd463          	bge	s7,s11,12040 <_vfprintf_r+0x300>
   1203c:	000d8313          	mv	t1,s11
   12040:	00c12783          	lw	a5,12(sp)
   12044:	006787b3          	add	a5,a5,t1
   12048:	00f12623          	sw	a5,12(sp)
   1204c:	360614e3          	bnez	a2,12bb4 <_vfprintf_r+0xe74>
   12050:	01012783          	lw	a5,16(sp)
   12054:	0c012423          	sw	zero,200(sp)
   12058:	00078863          	beqz	a5,12068 <_vfprintf_r+0x328>
   1205c:	01012583          	lw	a1,16(sp)
   12060:	00812503          	lw	a0,8(sp)
   12064:	a08ff0ef          	jal	1126c <_free_r>
   12068:	00098a13          	mv	s4,s3
   1206c:	000a8d13          	mv	s10,s5
   12070:	000d4703          	lbu	a4,0(s10)
   12074:	de0710e3          	bnez	a4,11e54 <_vfprintf_r+0x114>
   12078:	0cc12783          	lw	a5,204(sp)
   1207c:	00078463          	beqz	a5,12084 <_vfprintf_r+0x344>
   12080:	3a10106f          	j	13c20 <_vfprintf_r+0x1ee0>
   12084:	00c4d783          	lhu	a5,12(s1)
   12088:	1bc12983          	lw	s3,444(sp)
   1208c:	1b812a03          	lw	s4,440(sp)
   12090:	0407f793          	andi	a5,a5,64
   12094:	1b412a83          	lw	s5,436(sp)
   12098:	1b012b03          	lw	s6,432(sp)
   1209c:	1ac12b83          	lw	s7,428(sp)
   120a0:	1a812c03          	lw	s8,424(sp)
   120a4:	1a412c83          	lw	s9,420(sp)
   120a8:	1a012d03          	lw	s10,416(sp)
   120ac:	19c12d83          	lw	s11,412(sp)
   120b0:	00078463          	beqz	a5,120b8 <_vfprintf_r+0x378>
   120b4:	29c0206f          	j	14350 <_vfprintf_r+0x2610>
   120b8:	1cc12083          	lw	ra,460(sp)
   120bc:	1c812403          	lw	s0,456(sp)
   120c0:	00c12503          	lw	a0,12(sp)
   120c4:	1c412483          	lw	s1,452(sp)
   120c8:	1c012903          	lw	s2,448(sp)
   120cc:	1d010113          	addi	sp,sp,464
   120d0:	00008067          	ret
   120d4:	00812503          	lw	a0,8(sp)
   120d8:	00048593          	mv	a1,s1
   120dc:	4f8040ef          	jal	165d4 <__swsetup_r>
   120e0:	00050463          	beqz	a0,120e8 <_vfprintf_r+0x3a8>
   120e4:	26c0206f          	j	14350 <_vfprintf_r+0x2610>
   120e8:	00c49703          	lh	a4,12(s1)
   120ec:	00a00693          	li	a3,10
   120f0:	01a77713          	andi	a4,a4,26
   120f4:	ced71ee3          	bne	a4,a3,11df0 <_vfprintf_r+0xb0>
   120f8:	00e49703          	lh	a4,14(s1)
   120fc:	ce074ae3          	bltz	a4,11df0 <_vfprintf_r+0xb0>
   12100:	01412683          	lw	a3,20(sp)
   12104:	00812503          	lw	a0,8(sp)
   12108:	00090613          	mv	a2,s2
   1210c:	00048593          	mv	a1,s1
   12110:	52c020ef          	jal	1463c <__sbprintf>
   12114:	00a12623          	sw	a0,12(sp)
   12118:	fa1ff06f          	j	120b8 <_vfprintf_r+0x378>
   1211c:	00812c03          	lw	s8,8(sp)
   12120:	000c0513          	mv	a0,s8
   12124:	205040ef          	jal	16b28 <_localeconv_r>
   12128:	00452783          	lw	a5,4(a0)
   1212c:	00078513          	mv	a0,a5
   12130:	04f12023          	sw	a5,64(sp)
   12134:	e29fe0ef          	jal	10f5c <strlen>
   12138:	00050793          	mv	a5,a0
   1213c:	000c0513          	mv	a0,s8
   12140:	04f12223          	sw	a5,68(sp)
   12144:	00078c13          	mv	s8,a5
   12148:	1e1040ef          	jal	16b28 <_localeconv_r>
   1214c:	00852703          	lw	a4,8(a0)
   12150:	02e12c23          	sw	a4,56(sp)
   12154:	740c1ce3          	bnez	s8,130ac <_vfprintf_r+0x136c>
   12158:	000ac883          	lbu	a7,0(s5)
   1215c:	d75ff06f          	j	11ed0 <_vfprintf_r+0x190>
   12160:	000ac883          	lbu	a7,0(s5)
   12164:	020cec93          	ori	s9,s9,32
   12168:	d69ff06f          	j	11ed0 <_vfprintf_r+0x190>
   1216c:	010cec93          	ori	s9,s9,16
   12170:	020cf793          	andi	a5,s9,32
   12174:	3a078a63          	beqz	a5,12528 <_vfprintf_r+0x7e8>
   12178:	01412783          	lw	a5,20(sp)
   1217c:	00778c13          	addi	s8,a5,7
   12180:	ff8c7c13          	andi	s8,s8,-8
   12184:	004c2783          	lw	a5,4(s8)
   12188:	000c2903          	lw	s2,0(s8)
   1218c:	008c0713          	addi	a4,s8,8
   12190:	00e12a23          	sw	a4,20(sp)
   12194:	00078d93          	mv	s11,a5
   12198:	3c07c263          	bltz	a5,1255c <_vfprintf_r+0x81c>
   1219c:	000c8e93          	mv	t4,s9
   121a0:	4e0b4663          	bltz	s6,1268c <_vfprintf_r+0x94c>
   121a4:	01b967b3          	or	a5,s2,s11
   121a8:	f7fcfe93          	andi	t4,s9,-129
   121ac:	4e079063          	bnez	a5,1268c <_vfprintf_r+0x94c>
   121b0:	4e0b1463          	bnez	s6,12698 <_vfprintf_r+0x958>
   121b4:	00000913          	li	s2,0
   121b8:	000e8c93          	mv	s9,t4
   121bc:	19010d13          	addi	s10,sp,400
   121c0:	0a714703          	lbu	a4,167(sp)
   121c4:	000b0d93          	mv	s11,s6
   121c8:	012b5463          	bge	s6,s2,121d0 <_vfprintf_r+0x490>
   121cc:	00090d93          	mv	s11,s2
   121d0:	00012823          	sw	zero,16(sp)
   121d4:	02012223          	sw	zero,36(sp)
   121d8:	02012023          	sw	zero,32(sp)
   121dc:	00012c23          	sw	zero,24(sp)
   121e0:	d6070ce3          	beqz	a4,11f58 <_vfprintf_r+0x218>
   121e4:	001d8d93          	addi	s11,s11,1
   121e8:	d71ff06f          	j	11f58 <_vfprintf_r+0x218>
   121ec:	010cec93          	ori	s9,s9,16
   121f0:	020cf793          	andi	a5,s9,32
   121f4:	30078263          	beqz	a5,124f8 <_vfprintf_r+0x7b8>
   121f8:	01412783          	lw	a5,20(sp)
   121fc:	00778c13          	addi	s8,a5,7
   12200:	ff8c7c13          	andi	s8,s8,-8
   12204:	000c2903          	lw	s2,0(s8)
   12208:	004c2d83          	lw	s11,4(s8)
   1220c:	008c0793          	addi	a5,s8,8
   12210:	00f12a23          	sw	a5,20(sp)
   12214:	bffcfe93          	andi	t4,s9,-1025
   12218:	00000793          	li	a5,0
   1221c:	00000713          	li	a4,0
   12220:	0ae103a3          	sb	a4,167(sp)
   12224:	340b4e63          	bltz	s6,12580 <_vfprintf_r+0x840>
   12228:	01b96733          	or	a4,s2,s11
   1222c:	f7fefc93          	andi	s9,t4,-129
   12230:	1a0718e3          	bnez	a4,12be0 <_vfprintf_r+0xea0>
   12234:	740b1263          	bnez	s6,12978 <_vfprintf_r+0xc38>
   12238:	5e0796e3          	bnez	a5,13024 <_vfprintf_r+0x12e4>
   1223c:	001ef913          	andi	s2,t4,1
   12240:	19010d13          	addi	s10,sp,400
   12244:	f6090ee3          	beqz	s2,121c0 <_vfprintf_r+0x480>
   12248:	03000793          	li	a5,48
   1224c:	18f107a3          	sb	a5,399(sp)
   12250:	18f10d13          	addi	s10,sp,399
   12254:	f6dff06f          	j	121c0 <_vfprintf_r+0x480>
   12258:	41aa8933          	sub	s2,s5,s10
   1225c:	c1aa9ce3          	bne	s5,s10,11e74 <_vfprintf_r+0x134>
   12260:	000ac703          	lbu	a4,0(s5)
   12264:	c4dff06f          	j	11eb0 <_vfprintf_r+0x170>
   12268:	00812503          	lw	a0,8(sp)
   1226c:	0c410613          	addi	a2,sp,196
   12270:	00048593          	mv	a1,s1
   12274:	5b8020ef          	jal	1482c <__sprint_r>
   12278:	e00516e3          	bnez	a0,12084 <_vfprintf_r+0x344>
   1227c:	00098a13          	mv	s4,s3
   12280:	c21ff06f          	j	11ea0 <_vfprintf_r+0x160>
   12284:	008cf713          	andi	a4,s9,8
   12288:	600710e3          	bnez	a4,13088 <_vfprintf_r+0x1348>
   1228c:	01412783          	lw	a5,20(sp)
   12290:	09010513          	addi	a0,sp,144
   12294:	01112823          	sw	a7,16(sp)
   12298:	00778c13          	addi	s8,a5,7
   1229c:	ff8c7c13          	andi	s8,s8,-8
   122a0:	000c2583          	lw	a1,0(s8)
   122a4:	004c2603          	lw	a2,4(s8)
   122a8:	008c0793          	addi	a5,s8,8
   122ac:	00f12a23          	sw	a5,20(sp)
   122b0:	3f80e0ef          	jal	206a8 <__extenddftf2>
   122b4:	09012583          	lw	a1,144(sp)
   122b8:	09412603          	lw	a2,148(sp)
   122bc:	09812683          	lw	a3,152(sp)
   122c0:	09c12703          	lw	a4,156(sp)
   122c4:	01012883          	lw	a7,16(sp)
   122c8:	0d010513          	addi	a0,sp,208
   122cc:	01112823          	sw	a7,16(sp)
   122d0:	0ce12e23          	sw	a4,220(sp)
   122d4:	0cb12823          	sw	a1,208(sp)
   122d8:	0cc12a23          	sw	a2,212(sp)
   122dc:	0cd12c23          	sw	a3,216(sp)
   122e0:	240050ef          	jal	17520 <_ldcheck>
   122e4:	0aa12623          	sw	a0,172(sp)
   122e8:	00200713          	li	a4,2
   122ec:	01012883          	lw	a7,16(sp)
   122f0:	00e51463          	bne	a0,a4,122f8 <_vfprintf_r+0x5b8>
   122f4:	3f40106f          	j	136e8 <_vfprintf_r+0x19a8>
   122f8:	00100713          	li	a4,1
   122fc:	00e51463          	bne	a0,a4,12304 <_vfprintf_r+0x5c4>
   12300:	5540106f          	j	13854 <_vfprintf_r+0x1b14>
   12304:	06100713          	li	a4,97
   12308:	00e89463          	bne	a7,a4,12310 <_vfprintf_r+0x5d0>
   1230c:	7a50006f          	j	132b0 <_vfprintf_r+0x1570>
   12310:	04100713          	li	a4,65
   12314:	05800793          	li	a5,88
   12318:	78e88ee3          	beq	a7,a4,132b4 <_vfprintf_r+0x1574>
   1231c:	fff00713          	li	a4,-1
   12320:	00eb1463          	bne	s6,a4,12328 <_vfprintf_r+0x5e8>
   12324:	16c0206f          	j	14490 <_vfprintf_r+0x2750>
   12328:	fdf8f713          	andi	a4,a7,-33
   1232c:	04700693          	li	a3,71
   12330:	00012823          	sw	zero,16(sp)
   12334:	00d71663          	bne	a4,a3,12340 <_vfprintf_r+0x600>
   12338:	000b1463          	bnez	s6,12340 <_vfprintf_r+0x600>
   1233c:	00100b13          	li	s6,1
   12340:	0dc12c03          	lw	s8,220(sp)
   12344:	100ce793          	ori	a5,s9,256
   12348:	04f12423          	sw	a5,72(sp)
   1234c:	02012a23          	sw	zero,52(sp)
   12350:	0d012f83          	lw	t6,208(sp)
   12354:	0d412f03          	lw	t5,212(sp)
   12358:	0d812e83          	lw	t4,216(sp)
   1235c:	000c5a63          	bgez	s8,12370 <_vfprintf_r+0x630>
   12360:	80000737          	lui	a4,0x80000
   12364:	02d00793          	li	a5,45
   12368:	01874c33          	xor	s8,a4,s8
   1236c:	02f12a23          	sw	a5,52(sp)
   12370:	fbf88713          	addi	a4,a7,-65
   12374:	02500693          	li	a3,37
   12378:	78e6e2e3          	bltu	a3,a4,132fc <_vfprintf_r+0x15bc>
   1237c:	0000f697          	auipc	a3,0xf
   12380:	a7868693          	addi	a3,a3,-1416 # 20df4 <_exit+0x444>
   12384:	00271713          	slli	a4,a4,0x2
   12388:	00d70733          	add	a4,a4,a3
   1238c:	00072703          	lw	a4,0(a4) # 80000000 <__BSS_END__+0x7ffdd2d0>
   12390:	00d70733          	add	a4,a4,a3
   12394:	00070067          	jr	a4
   12398:	00812503          	lw	a0,8(sp)
   1239c:	0c410613          	addi	a2,sp,196
   123a0:	00048593          	mv	a1,s1
   123a4:	05112623          	sw	a7,76(sp)
   123a8:	05f12423          	sw	t6,72(sp)
   123ac:	02512a23          	sw	t0,52(sp)
   123b0:	47c020ef          	jal	1482c <__sprint_r>
   123b4:	00051ae3          	bnez	a0,12bc8 <_vfprintf_r+0xe88>
   123b8:	0cc12603          	lw	a2,204(sp)
   123bc:	04c12883          	lw	a7,76(sp)
   123c0:	04812f83          	lw	t6,72(sp)
   123c4:	03412283          	lw	t0,52(sp)
   123c8:	00098a13          	mv	s4,s3
   123cc:	be5ff06f          	j	11fb0 <_vfprintf_r+0x270>
   123d0:	0c812903          	lw	s2,200(sp)
   123d4:	01c12783          	lw	a5,28(sp)
   123d8:	00100713          	li	a4,1
   123dc:	01aa2023          	sw	s10,0(s4)
   123e0:	00160c13          	addi	s8,a2,1
   123e4:	00190913          	addi	s2,s2,1
   123e8:	008a0b13          	addi	s6,s4,8
   123ec:	32f75ae3          	bge	a4,a5,12f20 <_vfprintf_r+0x11e0>
   123f0:	00100713          	li	a4,1
   123f4:	00ea2223          	sw	a4,4(s4)
   123f8:	0d812623          	sw	s8,204(sp)
   123fc:	0d212423          	sw	s2,200(sp)
   12400:	00700713          	li	a4,7
   12404:	01275463          	bge	a4,s2,1240c <_vfprintf_r+0x6cc>
   12408:	0bc0106f          	j	134c4 <_vfprintf_r+0x1784>
   1240c:	02812783          	lw	a5,40(sp)
   12410:	02c12703          	lw	a4,44(sp)
   12414:	00190913          	addi	s2,s2,1
   12418:	00fc0c33          	add	s8,s8,a5
   1241c:	00eb2023          	sw	a4,0(s6)
   12420:	00fb2223          	sw	a5,4(s6)
   12424:	0d812623          	sw	s8,204(sp)
   12428:	0d212423          	sw	s2,200(sp)
   1242c:	00700713          	li	a4,7
   12430:	008b0b13          	addi	s6,s6,8
   12434:	01275463          	bge	a4,s2,1243c <_vfprintf_r+0x6fc>
   12438:	0b00106f          	j	134e8 <_vfprintf_r+0x17a8>
   1243c:	0d012703          	lw	a4,208(sp)
   12440:	01c12783          	lw	a5,28(sp)
   12444:	08010593          	addi	a1,sp,128
   12448:	08e12823          	sw	a4,144(sp)
   1244c:	0d412703          	lw	a4,212(sp)
   12450:	09010513          	addi	a0,sp,144
   12454:	08012023          	sw	zero,128(sp)
   12458:	08e12a23          	sw	a4,148(sp)
   1245c:	0d812703          	lw	a4,216(sp)
   12460:	08012223          	sw	zero,132(sp)
   12464:	08012423          	sw	zero,136(sp)
   12468:	08e12c23          	sw	a4,152(sp)
   1246c:	0dc12703          	lw	a4,220(sp)
   12470:	08012623          	sw	zero,140(sp)
   12474:	fff78a13          	addi	s4,a5,-1
   12478:	08e12e23          	sw	a4,156(sp)
   1247c:	7940b0ef          	jal	1dc10 <__eqtf2>
   12480:	2e0500e3          	beqz	a0,12f60 <_vfprintf_r+0x1220>
   12484:	001d0793          	addi	a5,s10,1
   12488:	00190913          	addi	s2,s2,1
   1248c:	014c0c33          	add	s8,s8,s4
   12490:	00fb2023          	sw	a5,0(s6)
   12494:	014b2223          	sw	s4,4(s6)
   12498:	0d812623          	sw	s8,204(sp)
   1249c:	0d212423          	sw	s2,200(sp)
   124a0:	00700793          	li	a5,7
   124a4:	008b0b13          	addi	s6,s6,8
   124a8:	2927cae3          	blt	a5,s2,12f3c <_vfprintf_r+0x11fc>
   124ac:	03c12683          	lw	a3,60(sp)
   124b0:	0b410713          	addi	a4,sp,180
   124b4:	00190793          	addi	a5,s2,1
   124b8:	01868633          	add	a2,a3,s8
   124bc:	00eb2023          	sw	a4,0(s6)
   124c0:	00db2223          	sw	a3,4(s6)
   124c4:	0cc12623          	sw	a2,204(sp)
   124c8:	0cf12423          	sw	a5,200(sp)
   124cc:	00700713          	li	a4,7
   124d0:	008b0a13          	addi	s4,s6,8
   124d4:	b4f758e3          	bge	a4,a5,12024 <_vfprintf_r+0x2e4>
   124d8:	00812503          	lw	a0,8(sp)
   124dc:	0c410613          	addi	a2,sp,196
   124e0:	00048593          	mv	a1,s1
   124e4:	348020ef          	jal	1482c <__sprint_r>
   124e8:	6e051063          	bnez	a0,12bc8 <_vfprintf_r+0xe88>
   124ec:	0cc12603          	lw	a2,204(sp)
   124f0:	00098a13          	mv	s4,s3
   124f4:	b31ff06f          	j	12024 <_vfprintf_r+0x2e4>
   124f8:	01412703          	lw	a4,20(sp)
   124fc:	010cf793          	andi	a5,s9,16
   12500:	00072903          	lw	s2,0(a4)
   12504:	00470713          	addi	a4,a4,4
   12508:	00e12a23          	sw	a4,20(sp)
   1250c:	36079ae3          	bnez	a5,13080 <_vfprintf_r+0x1340>
   12510:	040cf793          	andi	a5,s9,64
   12514:	360782e3          	beqz	a5,13078 <_vfprintf_r+0x1338>
   12518:	01091913          	slli	s2,s2,0x10
   1251c:	01095913          	srli	s2,s2,0x10
   12520:	00000d93          	li	s11,0
   12524:	cf1ff06f          	j	12214 <_vfprintf_r+0x4d4>
   12528:	01412703          	lw	a4,20(sp)
   1252c:	010cf793          	andi	a5,s9,16
   12530:	00072903          	lw	s2,0(a4)
   12534:	00470713          	addi	a4,a4,4
   12538:	00e12a23          	sw	a4,20(sp)
   1253c:	320798e3          	bnez	a5,1306c <_vfprintf_r+0x132c>
   12540:	040cf793          	andi	a5,s9,64
   12544:	320780e3          	beqz	a5,13064 <_vfprintf_r+0x1324>
   12548:	01091913          	slli	s2,s2,0x10
   1254c:	41095913          	srai	s2,s2,0x10
   12550:	41f95d93          	srai	s11,s2,0x1f
   12554:	000d8793          	mv	a5,s11
   12558:	c407d2e3          	bgez	a5,1219c <_vfprintf_r+0x45c>
   1255c:	02d00713          	li	a4,45
   12560:	012037b3          	snez	a5,s2
   12564:	41b00db3          	neg	s11,s11
   12568:	0ae103a3          	sb	a4,167(sp)
   1256c:	40fd8db3          	sub	s11,s11,a5
   12570:	41200933          	neg	s2,s2
   12574:	000c8e93          	mv	t4,s9
   12578:	00100793          	li	a5,1
   1257c:	ca0b56e3          	bgez	s6,12228 <_vfprintf_r+0x4e8>
   12580:	00100713          	li	a4,1
   12584:	10e78463          	beq	a5,a4,1268c <_vfprintf_r+0x94c>
   12588:	00200713          	li	a4,2
   1258c:	40e78263          	beq	a5,a4,12990 <_vfprintf_r+0xc50>
   12590:	19010d13          	addi	s10,sp,400
   12594:	01dd9793          	slli	a5,s11,0x1d
   12598:	00797713          	andi	a4,s2,7
   1259c:	00395913          	srli	s2,s2,0x3
   125a0:	03070713          	addi	a4,a4,48
   125a4:	0127e933          	or	s2,a5,s2
   125a8:	003ddd93          	srli	s11,s11,0x3
   125ac:	feed0fa3          	sb	a4,-1(s10)
   125b0:	01b967b3          	or	a5,s2,s11
   125b4:	000d0613          	mv	a2,s10
   125b8:	fffd0d13          	addi	s10,s10,-1
   125bc:	fc079ce3          	bnez	a5,12594 <_vfprintf_r+0x854>
   125c0:	001ef693          	andi	a3,t4,1
   125c4:	40068063          	beqz	a3,129c4 <_vfprintf_r+0xc84>
   125c8:	03000693          	li	a3,48
   125cc:	3ed70c63          	beq	a4,a3,129c4 <_vfprintf_r+0xc84>
   125d0:	ffe60613          	addi	a2,a2,-2
   125d4:	19010793          	addi	a5,sp,400
   125d8:	fedd0fa3          	sb	a3,-1(s10)
   125dc:	40c78933          	sub	s2,a5,a2
   125e0:	000e8c93          	mv	s9,t4
   125e4:	00060d13          	mv	s10,a2
   125e8:	bd9ff06f          	j	121c0 <_vfprintf_r+0x480>
   125ec:	01412703          	lw	a4,20(sp)
   125f0:	0a0103a3          	sb	zero,167(sp)
   125f4:	00100d93          	li	s11,1
   125f8:	00072783          	lw	a5,0(a4)
   125fc:	00470713          	addi	a4,a4,4
   12600:	00e12a23          	sw	a4,20(sp)
   12604:	12f10623          	sb	a5,300(sp)
   12608:	00100913          	li	s2,1
   1260c:	12c10d13          	addi	s10,sp,300
   12610:	935ff06f          	j	11f44 <_vfprintf_r+0x204>
   12614:	01412783          	lw	a5,20(sp)
   12618:	0a0103a3          	sb	zero,167(sp)
   1261c:	0007ad03          	lw	s10,0(a5)
   12620:	00478c13          	addi	s8,a5,4
   12624:	3a0d02e3          	beqz	s10,131c8 <_vfprintf_r+0x1488>
   12628:	000b5463          	bgez	s6,12630 <_vfprintf_r+0x8f0>
   1262c:	1bc0106f          	j	137e8 <_vfprintf_r+0x1aa8>
   12630:	000b0613          	mv	a2,s6
   12634:	00000593          	li	a1,0
   12638:	000d0513          	mv	a0,s10
   1263c:	01112a23          	sw	a7,20(sp)
   12640:	270040ef          	jal	168b0 <memchr>
   12644:	00a12823          	sw	a0,16(sp)
   12648:	01412883          	lw	a7,20(sp)
   1264c:	00051463          	bnez	a0,12654 <_vfprintf_r+0x914>
   12650:	3d90106f          	j	14228 <_vfprintf_r+0x24e8>
   12654:	01012783          	lw	a5,16(sp)
   12658:	0a714703          	lbu	a4,167(sp)
   1265c:	01812a23          	sw	s8,20(sp)
   12660:	41a78933          	sub	s2,a5,s10
   12664:	fff94693          	not	a3,s2
   12668:	41f6d693          	srai	a3,a3,0x1f
   1266c:	00012823          	sw	zero,16(sp)
   12670:	02012223          	sw	zero,36(sp)
   12674:	02012023          	sw	zero,32(sp)
   12678:	00012c23          	sw	zero,24(sp)
   1267c:	00d97db3          	and	s11,s2,a3
   12680:	00000b13          	li	s6,0
   12684:	b60710e3          	bnez	a4,121e4 <_vfprintf_r+0x4a4>
   12688:	8d1ff06f          	j	11f58 <_vfprintf_r+0x218>
   1268c:	680d98e3          	bnez	s11,1351c <_vfprintf_r+0x17dc>
   12690:	00900793          	li	a5,9
   12694:	6927e4e3          	bltu	a5,s2,1351c <_vfprintf_r+0x17dc>
   12698:	03090913          	addi	s2,s2,48
   1269c:	192107a3          	sb	s2,399(sp)
   126a0:	000e8c93          	mv	s9,t4
   126a4:	00100913          	li	s2,1
   126a8:	18f10d13          	addi	s10,sp,399
   126ac:	b15ff06f          	j	121c0 <_vfprintf_r+0x480>
   126b0:	01412783          	lw	a5,20(sp)
   126b4:	0007ab83          	lw	s7,0(a5)
   126b8:	00478793          	addi	a5,a5,4
   126bc:	180bd2e3          	bgez	s7,13040 <_vfprintf_r+0x1300>
   126c0:	41700bb3          	neg	s7,s7
   126c4:	00f12a23          	sw	a5,20(sp)
   126c8:	000ac883          	lbu	a7,0(s5)
   126cc:	004cec93          	ori	s9,s9,4
   126d0:	801ff06f          	j	11ed0 <_vfprintf_r+0x190>
   126d4:	010cee93          	ori	t4,s9,16
   126d8:	020ef793          	andi	a5,t4,32
   126dc:	10078ae3          	beqz	a5,12ff0 <_vfprintf_r+0x12b0>
   126e0:	01412783          	lw	a5,20(sp)
   126e4:	00778c13          	addi	s8,a5,7
   126e8:	ff8c7c13          	andi	s8,s8,-8
   126ec:	008c0793          	addi	a5,s8,8
   126f0:	00f12a23          	sw	a5,20(sp)
   126f4:	000c2903          	lw	s2,0(s8)
   126f8:	004c2d83          	lw	s11,4(s8)
   126fc:	00100793          	li	a5,1
   12700:	b1dff06f          	j	1221c <_vfprintf_r+0x4dc>
   12704:	02b00793          	li	a5,43
   12708:	000ac883          	lbu	a7,0(s5)
   1270c:	0af103a3          	sb	a5,167(sp)
   12710:	fc0ff06f          	j	11ed0 <_vfprintf_r+0x190>
   12714:	01412703          	lw	a4,20(sp)
   12718:	000087b7          	lui	a5,0x8
   1271c:	83078793          	addi	a5,a5,-2000 # 7830 <exit-0x8884>
   12720:	0af11423          	sh	a5,168(sp)
   12724:	00470793          	addi	a5,a4,4
   12728:	00f12a23          	sw	a5,20(sp)
   1272c:	0000e797          	auipc	a5,0xe
   12730:	41c78793          	addi	a5,a5,1052 # 20b48 <_exit+0x198>
   12734:	02f12823          	sw	a5,48(sp)
   12738:	00072903          	lw	s2,0(a4)
   1273c:	00000d93          	li	s11,0
   12740:	002cee93          	ori	t4,s9,2
   12744:	00200793          	li	a5,2
   12748:	07800893          	li	a7,120
   1274c:	ad1ff06f          	j	1221c <_vfprintf_r+0x4dc>
   12750:	020cf793          	andi	a5,s9,32
   12754:	16078ee3          	beqz	a5,130d0 <_vfprintf_r+0x1390>
   12758:	01412783          	lw	a5,20(sp)
   1275c:	00c12683          	lw	a3,12(sp)
   12760:	0007a783          	lw	a5,0(a5)
   12764:	41f6d713          	srai	a4,a3,0x1f
   12768:	00d7a023          	sw	a3,0(a5)
   1276c:	00e7a223          	sw	a4,4(a5)
   12770:	01412783          	lw	a5,20(sp)
   12774:	000a8d13          	mv	s10,s5
   12778:	00478793          	addi	a5,a5,4
   1277c:	00f12a23          	sw	a5,20(sp)
   12780:	8f1ff06f          	j	12070 <_vfprintf_r+0x330>
   12784:	000ac883          	lbu	a7,0(s5)
   12788:	06c00793          	li	a5,108
   1278c:	22f886e3          	beq	a7,a5,131b8 <_vfprintf_r+0x1478>
   12790:	010cec93          	ori	s9,s9,16
   12794:	f3cff06f          	j	11ed0 <_vfprintf_r+0x190>
   12798:	000ac883          	lbu	a7,0(s5)
   1279c:	06800793          	li	a5,104
   127a0:	20f884e3          	beq	a7,a5,131a8 <_vfprintf_r+0x1468>
   127a4:	040cec93          	ori	s9,s9,64
   127a8:	f28ff06f          	j	11ed0 <_vfprintf_r+0x190>
   127ac:	000ac883          	lbu	a7,0(s5)
   127b0:	008cec93          	ori	s9,s9,8
   127b4:	f1cff06f          	j	11ed0 <_vfprintf_r+0x190>
   127b8:	000ac883          	lbu	a7,0(s5)
   127bc:	001cec93          	ori	s9,s9,1
   127c0:	f10ff06f          	j	11ed0 <_vfprintf_r+0x190>
   127c4:	0a714783          	lbu	a5,167(sp)
   127c8:	000ac883          	lbu	a7,0(s5)
   127cc:	f0079263          	bnez	a5,11ed0 <_vfprintf_r+0x190>
   127d0:	02000793          	li	a5,32
   127d4:	0af103a3          	sb	a5,167(sp)
   127d8:	ef8ff06f          	j	11ed0 <_vfprintf_r+0x190>
   127dc:	000ac883          	lbu	a7,0(s5)
   127e0:	080cec93          	ori	s9,s9,128
   127e4:	eecff06f          	j	11ed0 <_vfprintf_r+0x190>
   127e8:	000ac883          	lbu	a7,0(s5)
   127ec:	02a00793          	li	a5,42
   127f0:	001a8693          	addi	a3,s5,1
   127f4:	00f89463          	bne	a7,a5,127fc <_vfprintf_r+0xabc>
   127f8:	5e50106f          	j	145dc <_vfprintf_r+0x289c>
   127fc:	fd088793          	addi	a5,a7,-48
   12800:	00900713          	li	a4,9
   12804:	00000b13          	li	s6,0
   12808:	00900613          	li	a2,9
   1280c:	02f76463          	bltu	a4,a5,12834 <_vfprintf_r+0xaf4>
   12810:	0006c883          	lbu	a7,0(a3)
   12814:	002b1713          	slli	a4,s6,0x2
   12818:	01670b33          	add	s6,a4,s6
   1281c:	001b1b13          	slli	s6,s6,0x1
   12820:	00fb0b33          	add	s6,s6,a5
   12824:	fd088793          	addi	a5,a7,-48
   12828:	00168693          	addi	a3,a3,1
   1282c:	fef672e3          	bgeu	a2,a5,12810 <_vfprintf_r+0xad0>
   12830:	0c0b4ce3          	bltz	s6,13108 <_vfprintf_r+0x13c8>
   12834:	00068a93          	mv	s5,a3
   12838:	e9cff06f          	j	11ed4 <_vfprintf_r+0x194>
   1283c:	06500713          	li	a4,101
   12840:	b91758e3          	bge	a4,a7,123d0 <_vfprintf_r+0x690>
   12844:	0d012703          	lw	a4,208(sp)
   12848:	08010593          	addi	a1,sp,128
   1284c:	09010513          	addi	a0,sp,144
   12850:	08e12823          	sw	a4,144(sp)
   12854:	0d412703          	lw	a4,212(sp)
   12858:	02c12a23          	sw	a2,52(sp)
   1285c:	08012023          	sw	zero,128(sp)
   12860:	08e12a23          	sw	a4,148(sp)
   12864:	0d812703          	lw	a4,216(sp)
   12868:	08012223          	sw	zero,132(sp)
   1286c:	08012423          	sw	zero,136(sp)
   12870:	08e12c23          	sw	a4,152(sp)
   12874:	0dc12703          	lw	a4,220(sp)
   12878:	08012623          	sw	zero,140(sp)
   1287c:	08e12e23          	sw	a4,156(sp)
   12880:	3900b0ef          	jal	1dc10 <__eqtf2>
   12884:	03412603          	lw	a2,52(sp)
   12888:	54051663          	bnez	a0,12dd4 <_vfprintf_r+0x1094>
   1288c:	0c812783          	lw	a5,200(sp)
   12890:	0000e717          	auipc	a4,0xe
   12894:	2e870713          	addi	a4,a4,744 # 20b78 <_exit+0x1c8>
   12898:	00ea2023          	sw	a4,0(s4)
   1289c:	00160613          	addi	a2,a2,1
   128a0:	00100713          	li	a4,1
   128a4:	00178793          	addi	a5,a5,1
   128a8:	00ea2223          	sw	a4,4(s4)
   128ac:	0cc12623          	sw	a2,204(sp)
   128b0:	0cf12423          	sw	a5,200(sp)
   128b4:	00700713          	li	a4,7
   128b8:	008a0a13          	addi	s4,s4,8
   128bc:	5ef74ce3          	blt	a4,a5,136b4 <_vfprintf_r+0x1974>
   128c0:	0ac12783          	lw	a5,172(sp)
   128c4:	01c12703          	lw	a4,28(sp)
   128c8:	76e7d463          	bge	a5,a4,13030 <_vfprintf_r+0x12f0>
   128cc:	02c12783          	lw	a5,44(sp)
   128d0:	02812703          	lw	a4,40(sp)
   128d4:	008a0a13          	addi	s4,s4,8
   128d8:	fefa2c23          	sw	a5,-8(s4)
   128dc:	0c812783          	lw	a5,200(sp)
   128e0:	00e60633          	add	a2,a2,a4
   128e4:	feea2e23          	sw	a4,-4(s4)
   128e8:	00178793          	addi	a5,a5,1
   128ec:	0cc12623          	sw	a2,204(sp)
   128f0:	0cf12423          	sw	a5,200(sp)
   128f4:	00700713          	li	a4,7
   128f8:	08f748e3          	blt	a4,a5,13188 <_vfprintf_r+0x1448>
   128fc:	01c12783          	lw	a5,28(sp)
   12900:	fff78913          	addi	s2,a5,-1
   12904:	f3205063          	blez	s2,12024 <_vfprintf_r+0x2e4>
   12908:	0000e817          	auipc	a6,0xe
   1290c:	58480813          	addi	a6,a6,1412 # 20e8c <zeroes.0>
   12910:	01000713          	li	a4,16
   12914:	0c812783          	lw	a5,200(sp)
   12918:	01000b13          	li	s6,16
   1291c:	00700c13          	li	s8,7
   12920:	00080d13          	mv	s10,a6
   12924:	01274863          	blt	a4,s2,12934 <_vfprintf_r+0xbf4>
   12928:	5b10006f          	j	136d8 <_vfprintf_r+0x1998>
   1292c:	ff090913          	addi	s2,s2,-16
   12930:	5b2b52e3          	bge	s6,s2,136d4 <_vfprintf_r+0x1994>
   12934:	01060613          	addi	a2,a2,16
   12938:	00178793          	addi	a5,a5,1
   1293c:	01aa2023          	sw	s10,0(s4)
   12940:	016a2223          	sw	s6,4(s4)
   12944:	0cc12623          	sw	a2,204(sp)
   12948:	0cf12423          	sw	a5,200(sp)
   1294c:	008a0a13          	addi	s4,s4,8
   12950:	fcfc5ee3          	bge	s8,a5,1292c <_vfprintf_r+0xbec>
   12954:	00812503          	lw	a0,8(sp)
   12958:	0c410613          	addi	a2,sp,196
   1295c:	00048593          	mv	a1,s1
   12960:	6cd010ef          	jal	1482c <__sprint_r>
   12964:	26051263          	bnez	a0,12bc8 <_vfprintf_r+0xe88>
   12968:	0cc12603          	lw	a2,204(sp)
   1296c:	0c812783          	lw	a5,200(sp)
   12970:	00098a13          	mv	s4,s3
   12974:	fb9ff06f          	j	1292c <_vfprintf_r+0xbec>
   12978:	00100713          	li	a4,1
   1297c:	00e79463          	bne	a5,a4,12984 <_vfprintf_r+0xc44>
   12980:	1510106f          	j	142d0 <_vfprintf_r+0x2590>
   12984:	00200713          	li	a4,2
   12988:	000c8e93          	mv	t4,s9
   1298c:	c0e792e3          	bne	a5,a4,12590 <_vfprintf_r+0x850>
   12990:	03012683          	lw	a3,48(sp)
   12994:	19010d13          	addi	s10,sp,400
   12998:	00f97793          	andi	a5,s2,15
   1299c:	00f687b3          	add	a5,a3,a5
   129a0:	0007c703          	lbu	a4,0(a5)
   129a4:	00495913          	srli	s2,s2,0x4
   129a8:	01cd9793          	slli	a5,s11,0x1c
   129ac:	0127e933          	or	s2,a5,s2
   129b0:	004ddd93          	srli	s11,s11,0x4
   129b4:	feed0fa3          	sb	a4,-1(s10)
   129b8:	01b967b3          	or	a5,s2,s11
   129bc:	fffd0d13          	addi	s10,s10,-1
   129c0:	fc079ce3          	bnez	a5,12998 <_vfprintf_r+0xc58>
   129c4:	19010793          	addi	a5,sp,400
   129c8:	41a78933          	sub	s2,a5,s10
   129cc:	000e8c93          	mv	s9,t4
   129d0:	ff0ff06f          	j	121c0 <_vfprintf_r+0x480>
   129d4:	41bb8c33          	sub	s8,s7,s11
   129d8:	e1805a63          	blez	s8,11fec <_vfprintf_r+0x2ac>
   129dc:	01000513          	li	a0,16
   129e0:	0c812583          	lw	a1,200(sp)
   129e4:	0000e817          	auipc	a6,0xe
   129e8:	4a880813          	addi	a6,a6,1192 # 20e8c <zeroes.0>
   129ec:	09855c63          	bge	a0,s8,12a84 <_vfprintf_r+0xd44>
   129f0:	00090713          	mv	a4,s2
   129f4:	000a0793          	mv	a5,s4
   129f8:	000c0913          	mv	s2,s8
   129fc:	01000e93          	li	t4,16
   12a00:	00700f93          	li	t6,7
   12a04:	03112a23          	sw	a7,52(sp)
   12a08:	00080a13          	mv	s4,a6
   12a0c:	00070c13          	mv	s8,a4
   12a10:	00c0006f          	j	12a1c <_vfprintf_r+0xcdc>
   12a14:	ff090913          	addi	s2,s2,-16
   12a18:	052eda63          	bge	t4,s2,12a6c <_vfprintf_r+0xd2c>
   12a1c:	01060613          	addi	a2,a2,16
   12a20:	00158593          	addi	a1,a1,1 # 2001 <exit-0xe0b3>
   12a24:	0147a023          	sw	s4,0(a5)
   12a28:	01d7a223          	sw	t4,4(a5)
   12a2c:	0cc12623          	sw	a2,204(sp)
   12a30:	0cb12423          	sw	a1,200(sp)
   12a34:	00878793          	addi	a5,a5,8
   12a38:	fcbfdee3          	bge	t6,a1,12a14 <_vfprintf_r+0xcd4>
   12a3c:	00812503          	lw	a0,8(sp)
   12a40:	0c410613          	addi	a2,sp,196
   12a44:	00048593          	mv	a1,s1
   12a48:	5e5010ef          	jal	1482c <__sprint_r>
   12a4c:	16051e63          	bnez	a0,12bc8 <_vfprintf_r+0xe88>
   12a50:	01000e93          	li	t4,16
   12a54:	ff090913          	addi	s2,s2,-16
   12a58:	0cc12603          	lw	a2,204(sp)
   12a5c:	0c812583          	lw	a1,200(sp)
   12a60:	00098793          	mv	a5,s3
   12a64:	00700f93          	li	t6,7
   12a68:	fb2ecae3          	blt	t4,s2,12a1c <_vfprintf_r+0xcdc>
   12a6c:	03412883          	lw	a7,52(sp)
   12a70:	000c0713          	mv	a4,s8
   12a74:	000a0813          	mv	a6,s4
   12a78:	00090c13          	mv	s8,s2
   12a7c:	00078a13          	mv	s4,a5
   12a80:	00070913          	mv	s2,a4
   12a84:	01860633          	add	a2,a2,s8
   12a88:	00158593          	addi	a1,a1,1
   12a8c:	010a2023          	sw	a6,0(s4)
   12a90:	018a2223          	sw	s8,4(s4)
   12a94:	0cc12623          	sw	a2,204(sp)
   12a98:	0cb12423          	sw	a1,200(sp)
   12a9c:	00700713          	li	a4,7
   12aa0:	008a0a13          	addi	s4,s4,8
   12aa4:	d4b75463          	bge	a4,a1,11fec <_vfprintf_r+0x2ac>
   12aa8:	00812503          	lw	a0,8(sp)
   12aac:	0c410613          	addi	a2,sp,196
   12ab0:	00048593          	mv	a1,s1
   12ab4:	03112a23          	sw	a7,52(sp)
   12ab8:	575010ef          	jal	1482c <__sprint_r>
   12abc:	10051663          	bnez	a0,12bc8 <_vfprintf_r+0xe88>
   12ac0:	0cc12603          	lw	a2,204(sp)
   12ac4:	03412883          	lw	a7,52(sp)
   12ac8:	00098a13          	mv	s4,s3
   12acc:	d20ff06f          	j	11fec <_vfprintf_r+0x2ac>
   12ad0:	0c812583          	lw	a1,200(sp)
   12ad4:	0000e817          	auipc	a6,0xe
   12ad8:	3b880813          	addi	a6,a6,952 # 20e8c <zeroes.0>
   12adc:	09645663          	bge	s0,s6,12b68 <_vfprintf_r+0xe28>
   12ae0:	000a0793          	mv	a5,s4
   12ae4:	00700c13          	li	s8,7
   12ae8:	00090a13          	mv	s4,s2
   12aec:	03112a23          	sw	a7,52(sp)
   12af0:	000b0913          	mv	s2,s6
   12af4:	00080b13          	mv	s6,a6
   12af8:	00c0006f          	j	12b04 <_vfprintf_r+0xdc4>
   12afc:	ff090913          	addi	s2,s2,-16
   12b00:	05245a63          	bge	s0,s2,12b54 <_vfprintf_r+0xe14>
   12b04:	01060613          	addi	a2,a2,16
   12b08:	00158593          	addi	a1,a1,1
   12b0c:	0000e717          	auipc	a4,0xe
   12b10:	38070713          	addi	a4,a4,896 # 20e8c <zeroes.0>
   12b14:	00e7a023          	sw	a4,0(a5)
   12b18:	0087a223          	sw	s0,4(a5)
   12b1c:	0cc12623          	sw	a2,204(sp)
   12b20:	0cb12423          	sw	a1,200(sp)
   12b24:	00878793          	addi	a5,a5,8
   12b28:	fcbc5ae3          	bge	s8,a1,12afc <_vfprintf_r+0xdbc>
   12b2c:	00812503          	lw	a0,8(sp)
   12b30:	0c410613          	addi	a2,sp,196
   12b34:	00048593          	mv	a1,s1
   12b38:	4f5010ef          	jal	1482c <__sprint_r>
   12b3c:	08051663          	bnez	a0,12bc8 <_vfprintf_r+0xe88>
   12b40:	ff090913          	addi	s2,s2,-16
   12b44:	0cc12603          	lw	a2,204(sp)
   12b48:	0c812583          	lw	a1,200(sp)
   12b4c:	00098793          	mv	a5,s3
   12b50:	fb244ae3          	blt	s0,s2,12b04 <_vfprintf_r+0xdc4>
   12b54:	03412883          	lw	a7,52(sp)
   12b58:	000b0813          	mv	a6,s6
   12b5c:	00090b13          	mv	s6,s2
   12b60:	000a0913          	mv	s2,s4
   12b64:	00078a13          	mv	s4,a5
   12b68:	01660633          	add	a2,a2,s6
   12b6c:	00158593          	addi	a1,a1,1
   12b70:	010a2023          	sw	a6,0(s4)
   12b74:	016a2223          	sw	s6,4(s4)
   12b78:	0cc12623          	sw	a2,204(sp)
   12b7c:	0cb12423          	sw	a1,200(sp)
   12b80:	00700713          	li	a4,7
   12b84:	008a0a13          	addi	s4,s4,8
   12b88:	c6b75663          	bge	a4,a1,11ff4 <_vfprintf_r+0x2b4>
   12b8c:	00812503          	lw	a0,8(sp)
   12b90:	0c410613          	addi	a2,sp,196
   12b94:	00048593          	mv	a1,s1
   12b98:	03112a23          	sw	a7,52(sp)
   12b9c:	491010ef          	jal	1482c <__sprint_r>
   12ba0:	02051463          	bnez	a0,12bc8 <_vfprintf_r+0xe88>
   12ba4:	0cc12603          	lw	a2,204(sp)
   12ba8:	03412883          	lw	a7,52(sp)
   12bac:	00098a13          	mv	s4,s3
   12bb0:	c44ff06f          	j	11ff4 <_vfprintf_r+0x2b4>
   12bb4:	00812503          	lw	a0,8(sp)
   12bb8:	0c410613          	addi	a2,sp,196
   12bbc:	00048593          	mv	a1,s1
   12bc0:	46d010ef          	jal	1482c <__sprint_r>
   12bc4:	c8050663          	beqz	a0,12050 <_vfprintf_r+0x310>
   12bc8:	01012383          	lw	t2,16(sp)
   12bcc:	ca038c63          	beqz	t2,12084 <_vfprintf_r+0x344>
   12bd0:	00812503          	lw	a0,8(sp)
   12bd4:	00038593          	mv	a1,t2
   12bd8:	e94fe0ef          	jal	1126c <_free_r>
   12bdc:	ca8ff06f          	j	12084 <_vfprintf_r+0x344>
   12be0:	000c8e93          	mv	t4,s9
   12be4:	99dff06f          	j	12580 <_vfprintf_r+0x840>
   12be8:	01000513          	li	a0,16
   12bec:	0c812583          	lw	a1,200(sp)
   12bf0:	0000ec17          	auipc	s8,0xe
   12bf4:	2acc0c13          	addi	s8,s8,684 # 20e9c <blanks.1>
   12bf8:	0ae55063          	bge	a0,a4,12c98 <_vfprintf_r+0xf58>
   12bfc:	000a0793          	mv	a5,s4
   12c00:	01000813          	li	a6,16
   12c04:	000c0a13          	mv	s4,s8
   12c08:	00700393          	li	t2,7
   12c0c:	00090c13          	mv	s8,s2
   12c10:	02512a23          	sw	t0,52(sp)
   12c14:	05f12423          	sw	t6,72(sp)
   12c18:	05112623          	sw	a7,76(sp)
   12c1c:	00070913          	mv	s2,a4
   12c20:	00c0006f          	j	12c2c <_vfprintf_r+0xeec>
   12c24:	ff090913          	addi	s2,s2,-16
   12c28:	05285a63          	bge	a6,s2,12c7c <_vfprintf_r+0xf3c>
   12c2c:	01060613          	addi	a2,a2,16
   12c30:	00158593          	addi	a1,a1,1
   12c34:	0147a023          	sw	s4,0(a5)
   12c38:	0107a223          	sw	a6,4(a5)
   12c3c:	0cc12623          	sw	a2,204(sp)
   12c40:	0cb12423          	sw	a1,200(sp)
   12c44:	00878793          	addi	a5,a5,8
   12c48:	fcb3dee3          	bge	t2,a1,12c24 <_vfprintf_r+0xee4>
   12c4c:	00812503          	lw	a0,8(sp)
   12c50:	0c410613          	addi	a2,sp,196
   12c54:	00048593          	mv	a1,s1
   12c58:	3d5010ef          	jal	1482c <__sprint_r>
   12c5c:	f60516e3          	bnez	a0,12bc8 <_vfprintf_r+0xe88>
   12c60:	01000813          	li	a6,16
   12c64:	ff090913          	addi	s2,s2,-16
   12c68:	0cc12603          	lw	a2,204(sp)
   12c6c:	0c812583          	lw	a1,200(sp)
   12c70:	00098793          	mv	a5,s3
   12c74:	00700393          	li	t2,7
   12c78:	fb284ae3          	blt	a6,s2,12c2c <_vfprintf_r+0xeec>
   12c7c:	03412283          	lw	t0,52(sp)
   12c80:	04812f83          	lw	t6,72(sp)
   12c84:	04c12883          	lw	a7,76(sp)
   12c88:	00090713          	mv	a4,s2
   12c8c:	000c0913          	mv	s2,s8
   12c90:	000a0c13          	mv	s8,s4
   12c94:	00078a13          	mv	s4,a5
   12c98:	00e60633          	add	a2,a2,a4
   12c9c:	00158593          	addi	a1,a1,1
   12ca0:	00ea2223          	sw	a4,4(s4)
   12ca4:	018a2023          	sw	s8,0(s4)
   12ca8:	0cc12623          	sw	a2,204(sp)
   12cac:	0cb12423          	sw	a1,200(sp)
   12cb0:	00700713          	li	a4,7
   12cb4:	008a0a13          	addi	s4,s4,8
   12cb8:	acb75063          	bge	a4,a1,11f78 <_vfprintf_r+0x238>
   12cbc:	00812503          	lw	a0,8(sp)
   12cc0:	0c410613          	addi	a2,sp,196
   12cc4:	00048593          	mv	a1,s1
   12cc8:	05112623          	sw	a7,76(sp)
   12ccc:	05f12423          	sw	t6,72(sp)
   12cd0:	02512a23          	sw	t0,52(sp)
   12cd4:	359010ef          	jal	1482c <__sprint_r>
   12cd8:	ee0518e3          	bnez	a0,12bc8 <_vfprintf_r+0xe88>
   12cdc:	0cc12603          	lw	a2,204(sp)
   12ce0:	04c12883          	lw	a7,76(sp)
   12ce4:	04812f83          	lw	t6,72(sp)
   12ce8:	03412283          	lw	t0,52(sp)
   12cec:	00098a13          	mv	s4,s3
   12cf0:	a88ff06f          	j	11f78 <_vfprintf_r+0x238>
   12cf4:	00812503          	lw	a0,8(sp)
   12cf8:	0c410613          	addi	a2,sp,196
   12cfc:	00048593          	mv	a1,s1
   12d00:	05112423          	sw	a7,72(sp)
   12d04:	03f12a23          	sw	t6,52(sp)
   12d08:	325010ef          	jal	1482c <__sprint_r>
   12d0c:	ea051ee3          	bnez	a0,12bc8 <_vfprintf_r+0xe88>
   12d10:	0cc12603          	lw	a2,204(sp)
   12d14:	04812883          	lw	a7,72(sp)
   12d18:	03412f83          	lw	t6,52(sp)
   12d1c:	00098a13          	mv	s4,s3
   12d20:	ac4ff06f          	j	11fe4 <_vfprintf_r+0x2a4>
   12d24:	01000713          	li	a4,16
   12d28:	0c812783          	lw	a5,200(sp)
   12d2c:	0000ec17          	auipc	s8,0xe
   12d30:	170c0c13          	addi	s8,s8,368 # 20e9c <blanks.1>
   12d34:	07275263          	bge	a4,s2,12d98 <_vfprintf_r+0x1058>
   12d38:	00812d03          	lw	s10,8(sp)
   12d3c:	01000b13          	li	s6,16
   12d40:	00700c93          	li	s9,7
   12d44:	00c0006f          	j	12d50 <_vfprintf_r+0x1010>
   12d48:	ff090913          	addi	s2,s2,-16
   12d4c:	052b5663          	bge	s6,s2,12d98 <_vfprintf_r+0x1058>
   12d50:	01060613          	addi	a2,a2,16
   12d54:	00178793          	addi	a5,a5,1
   12d58:	018a2023          	sw	s8,0(s4)
   12d5c:	016a2223          	sw	s6,4(s4)
   12d60:	0cc12623          	sw	a2,204(sp)
   12d64:	0cf12423          	sw	a5,200(sp)
   12d68:	008a0a13          	addi	s4,s4,8
   12d6c:	fcfcdee3          	bge	s9,a5,12d48 <_vfprintf_r+0x1008>
   12d70:	0c410613          	addi	a2,sp,196
   12d74:	00048593          	mv	a1,s1
   12d78:	000d0513          	mv	a0,s10
   12d7c:	2b1010ef          	jal	1482c <__sprint_r>
   12d80:	e40514e3          	bnez	a0,12bc8 <_vfprintf_r+0xe88>
   12d84:	ff090913          	addi	s2,s2,-16
   12d88:	0cc12603          	lw	a2,204(sp)
   12d8c:	0c812783          	lw	a5,200(sp)
   12d90:	00098a13          	mv	s4,s3
   12d94:	fb2b4ee3          	blt	s6,s2,12d50 <_vfprintf_r+0x1010>
   12d98:	01260633          	add	a2,a2,s2
   12d9c:	00178793          	addi	a5,a5,1
   12da0:	018a2023          	sw	s8,0(s4)
   12da4:	012a2223          	sw	s2,4(s4)
   12da8:	0cc12623          	sw	a2,204(sp)
   12dac:	0cf12423          	sw	a5,200(sp)
   12db0:	00700713          	li	a4,7
   12db4:	a8f75063          	bge	a4,a5,12034 <_vfprintf_r+0x2f4>
   12db8:	00812503          	lw	a0,8(sp)
   12dbc:	0c410613          	addi	a2,sp,196
   12dc0:	00048593          	mv	a1,s1
   12dc4:	269010ef          	jal	1482c <__sprint_r>
   12dc8:	e00510e3          	bnez	a0,12bc8 <_vfprintf_r+0xe88>
   12dcc:	0cc12603          	lw	a2,204(sp)
   12dd0:	a64ff06f          	j	12034 <_vfprintf_r+0x2f4>
   12dd4:	0ac12583          	lw	a1,172(sp)
   12dd8:	04b058e3          	blez	a1,13628 <_vfprintf_r+0x18e8>
   12ddc:	01812783          	lw	a5,24(sp)
   12de0:	01c12703          	lw	a4,28(sp)
   12de4:	00078b13          	mv	s6,a5
   12de8:	30f74a63          	blt	a4,a5,130fc <_vfprintf_r+0x13bc>
   12dec:	03605663          	blez	s6,12e18 <_vfprintf_r+0x10d8>
   12df0:	0c812703          	lw	a4,200(sp)
   12df4:	01660633          	add	a2,a2,s6
   12df8:	01aa2023          	sw	s10,0(s4)
   12dfc:	00170713          	addi	a4,a4,1
   12e00:	016a2223          	sw	s6,4(s4)
   12e04:	0cc12623          	sw	a2,204(sp)
   12e08:	0ce12423          	sw	a4,200(sp)
   12e0c:	00700593          	li	a1,7
   12e10:	008a0a13          	addi	s4,s4,8
   12e14:	5ae5c0e3          	blt	a1,a4,13bb4 <_vfprintf_r+0x1e74>
   12e18:	fffb4713          	not	a4,s6
   12e1c:	01812783          	lw	a5,24(sp)
   12e20:	41f75713          	srai	a4,a4,0x1f
   12e24:	00eb7b33          	and	s6,s6,a4
   12e28:	41678b33          	sub	s6,a5,s6
   12e2c:	3b604e63          	bgtz	s6,131e8 <_vfprintf_r+0x14a8>
   12e30:	01812783          	lw	a5,24(sp)
   12e34:	400cf713          	andi	a4,s9,1024
   12e38:	00fd0c33          	add	s8,s10,a5
   12e3c:	280716e3          	bnez	a4,138c8 <_vfprintf_r+0x1b88>
   12e40:	0ac12583          	lw	a1,172(sp)
   12e44:	01c12783          	lw	a5,28(sp)
   12e48:	40f5ca63          	blt	a1,a5,1325c <_vfprintf_r+0x151c>
   12e4c:	001cf713          	andi	a4,s9,1
   12e50:	40071663          	bnez	a4,1325c <_vfprintf_r+0x151c>
   12e54:	01c12703          	lw	a4,28(sp)
   12e58:	00ed07b3          	add	a5,s10,a4
   12e5c:	40b705b3          	sub	a1,a4,a1
   12e60:	41878b33          	sub	s6,a5,s8
   12e64:	0165d463          	bge	a1,s6,12e6c <_vfprintf_r+0x112c>
   12e68:	00058b13          	mv	s6,a1
   12e6c:	03605863          	blez	s6,12e9c <_vfprintf_r+0x115c>
   12e70:	0c812703          	lw	a4,200(sp)
   12e74:	01660633          	add	a2,a2,s6
   12e78:	018a2023          	sw	s8,0(s4)
   12e7c:	00170713          	addi	a4,a4,1
   12e80:	016a2223          	sw	s6,4(s4)
   12e84:	0cc12623          	sw	a2,204(sp)
   12e88:	0ce12423          	sw	a4,200(sp)
   12e8c:	00700793          	li	a5,7
   12e90:	008a0a13          	addi	s4,s4,8
   12e94:	00e7d463          	bge	a5,a4,12e9c <_vfprintf_r+0x115c>
   12e98:	3cc0106f          	j	14264 <_vfprintf_r+0x2524>
   12e9c:	fffb4713          	not	a4,s6
   12ea0:	41f75713          	srai	a4,a4,0x1f
   12ea4:	00eb77b3          	and	a5,s6,a4
   12ea8:	40f58933          	sub	s2,a1,a5
   12eac:	97205c63          	blez	s2,12024 <_vfprintf_r+0x2e4>
   12eb0:	0000e817          	auipc	a6,0xe
   12eb4:	fdc80813          	addi	a6,a6,-36 # 20e8c <zeroes.0>
   12eb8:	01000713          	li	a4,16
   12ebc:	0c812783          	lw	a5,200(sp)
   12ec0:	01000b13          	li	s6,16
   12ec4:	00700c13          	li	s8,7
   12ec8:	00080d13          	mv	s10,a6
   12ecc:	01274863          	blt	a4,s2,12edc <_vfprintf_r+0x119c>
   12ed0:	0090006f          	j	136d8 <_vfprintf_r+0x1998>
   12ed4:	ff090913          	addi	s2,s2,-16
   12ed8:	7f2b5e63          	bge	s6,s2,136d4 <_vfprintf_r+0x1994>
   12edc:	01060613          	addi	a2,a2,16
   12ee0:	00178793          	addi	a5,a5,1
   12ee4:	01aa2023          	sw	s10,0(s4)
   12ee8:	016a2223          	sw	s6,4(s4)
   12eec:	0cc12623          	sw	a2,204(sp)
   12ef0:	0cf12423          	sw	a5,200(sp)
   12ef4:	008a0a13          	addi	s4,s4,8
   12ef8:	fcfc5ee3          	bge	s8,a5,12ed4 <_vfprintf_r+0x1194>
   12efc:	00812503          	lw	a0,8(sp)
   12f00:	0c410613          	addi	a2,sp,196
   12f04:	00048593          	mv	a1,s1
   12f08:	125010ef          	jal	1482c <__sprint_r>
   12f0c:	ca051ee3          	bnez	a0,12bc8 <_vfprintf_r+0xe88>
   12f10:	0cc12603          	lw	a2,204(sp)
   12f14:	0c812783          	lw	a5,200(sp)
   12f18:	00098a13          	mv	s4,s3
   12f1c:	fb9ff06f          	j	12ed4 <_vfprintf_r+0x1194>
   12f20:	001cf593          	andi	a1,s9,1
   12f24:	cc059663          	bnez	a1,123f0 <_vfprintf_r+0x6b0>
   12f28:	00ea2223          	sw	a4,4(s4)
   12f2c:	0d812623          	sw	s8,204(sp)
   12f30:	0d212423          	sw	s2,200(sp)
   12f34:	00700793          	li	a5,7
   12f38:	d727da63          	bge	a5,s2,124ac <_vfprintf_r+0x76c>
   12f3c:	00812503          	lw	a0,8(sp)
   12f40:	0c410613          	addi	a2,sp,196
   12f44:	00048593          	mv	a1,s1
   12f48:	0e5010ef          	jal	1482c <__sprint_r>
   12f4c:	c6051ee3          	bnez	a0,12bc8 <_vfprintf_r+0xe88>
   12f50:	0cc12c03          	lw	s8,204(sp)
   12f54:	0c812903          	lw	s2,200(sp)
   12f58:	00098b13          	mv	s6,s3
   12f5c:	d50ff06f          	j	124ac <_vfprintf_r+0x76c>
   12f60:	01c12703          	lw	a4,28(sp)
   12f64:	00100793          	li	a5,1
   12f68:	d4e7d263          	bge	a5,a4,124ac <_vfprintf_r+0x76c>
   12f6c:	01100793          	li	a5,17
   12f70:	0000e817          	auipc	a6,0xe
   12f74:	f1c80813          	addi	a6,a6,-228 # 20e8c <zeroes.0>
   12f78:	0ce7d6e3          	bge	a5,a4,13844 <_vfprintf_r+0x1b04>
   12f7c:	00048713          	mv	a4,s1
   12f80:	01512c23          	sw	s5,24(sp)
   12f84:	000a0493          	mv	s1,s4
   12f88:	01000793          	li	a5,16
   12f8c:	00700d13          	li	s10,7
   12f90:	00080a93          	mv	s5,a6
   12f94:	00070a13          	mv	s4,a4
   12f98:	00c0006f          	j	12fa4 <_vfprintf_r+0x1264>
   12f9c:	ff048493          	addi	s1,s1,-16
   12fa0:	0897d8e3          	bge	a5,s1,13830 <_vfprintf_r+0x1af0>
   12fa4:	010c0c13          	addi	s8,s8,16
   12fa8:	00190913          	addi	s2,s2,1
   12fac:	015b2023          	sw	s5,0(s6)
   12fb0:	00fb2223          	sw	a5,4(s6)
   12fb4:	0d812623          	sw	s8,204(sp)
   12fb8:	0d212423          	sw	s2,200(sp)
   12fbc:	008b0b13          	addi	s6,s6,8
   12fc0:	fd2d5ee3          	bge	s10,s2,12f9c <_vfprintf_r+0x125c>
   12fc4:	00812503          	lw	a0,8(sp)
   12fc8:	0c410613          	addi	a2,sp,196
   12fcc:	000a0593          	mv	a1,s4
   12fd0:	05d010ef          	jal	1482c <__sprint_r>
   12fd4:	00050463          	beqz	a0,12fdc <_vfprintf_r+0x129c>
   12fd8:	2ec0106f          	j	142c4 <_vfprintf_r+0x2584>
   12fdc:	0cc12c03          	lw	s8,204(sp)
   12fe0:	0c812903          	lw	s2,200(sp)
   12fe4:	00098b13          	mv	s6,s3
   12fe8:	01000793          	li	a5,16
   12fec:	fb1ff06f          	j	12f9c <_vfprintf_r+0x125c>
   12ff0:	01412703          	lw	a4,20(sp)
   12ff4:	010ef793          	andi	a5,t4,16
   12ff8:	00072903          	lw	s2,0(a4)
   12ffc:	00470713          	addi	a4,a4,4
   13000:	00e12a23          	sw	a4,20(sp)
   13004:	04079a63          	bnez	a5,13058 <_vfprintf_r+0x1318>
   13008:	040ef793          	andi	a5,t4,64
   1300c:	04078063          	beqz	a5,1304c <_vfprintf_r+0x130c>
   13010:	01091913          	slli	s2,s2,0x10
   13014:	01095913          	srli	s2,s2,0x10
   13018:	00000d93          	li	s11,0
   1301c:	00100793          	li	a5,1
   13020:	9fcff06f          	j	1221c <_vfprintf_r+0x4dc>
   13024:	00000913          	li	s2,0
   13028:	19010d13          	addi	s10,sp,400
   1302c:	994ff06f          	j	121c0 <_vfprintf_r+0x480>
   13030:	001cf793          	andi	a5,s9,1
   13034:	00079463          	bnez	a5,1303c <_vfprintf_r+0x12fc>
   13038:	fedfe06f          	j	12024 <_vfprintf_r+0x2e4>
   1303c:	891ff06f          	j	128cc <_vfprintf_r+0xb8c>
   13040:	000ac883          	lbu	a7,0(s5)
   13044:	00f12a23          	sw	a5,20(sp)
   13048:	e89fe06f          	j	11ed0 <_vfprintf_r+0x190>
   1304c:	200ef793          	andi	a5,t4,512
   13050:	00078463          	beqz	a5,13058 <_vfprintf_r+0x1318>
   13054:	0ff97913          	zext.b	s2,s2
   13058:	00000d93          	li	s11,0
   1305c:	00100793          	li	a5,1
   13060:	9bcff06f          	j	1221c <_vfprintf_r+0x4dc>
   13064:	200cf793          	andi	a5,s9,512
   13068:	380792e3          	bnez	a5,13bec <_vfprintf_r+0x1eac>
   1306c:	41f95d93          	srai	s11,s2,0x1f
   13070:	000d8793          	mv	a5,s11
   13074:	924ff06f          	j	12198 <_vfprintf_r+0x458>
   13078:	200cf793          	andi	a5,s9,512
   1307c:	360792e3          	bnez	a5,13be0 <_vfprintf_r+0x1ea0>
   13080:	00000d93          	li	s11,0
   13084:	990ff06f          	j	12214 <_vfprintf_r+0x4d4>
   13088:	01412783          	lw	a5,20(sp)
   1308c:	0007a703          	lw	a4,0(a5)
   13090:	00478793          	addi	a5,a5,4
   13094:	00f12a23          	sw	a5,20(sp)
   13098:	00072583          	lw	a1,0(a4)
   1309c:	00472603          	lw	a2,4(a4)
   130a0:	00872683          	lw	a3,8(a4)
   130a4:	00c72703          	lw	a4,12(a4)
   130a8:	a20ff06f          	j	122c8 <_vfprintf_r+0x588>
   130ac:	03812783          	lw	a5,56(sp)
   130b0:	000ac883          	lbu	a7,0(s5)
   130b4:	00079463          	bnez	a5,130bc <_vfprintf_r+0x137c>
   130b8:	e19fe06f          	j	11ed0 <_vfprintf_r+0x190>
   130bc:	0007c783          	lbu	a5,0(a5)
   130c0:	00079463          	bnez	a5,130c8 <_vfprintf_r+0x1388>
   130c4:	e0dfe06f          	j	11ed0 <_vfprintf_r+0x190>
   130c8:	400cec93          	ori	s9,s9,1024
   130cc:	e05fe06f          	j	11ed0 <_vfprintf_r+0x190>
   130d0:	010cf793          	andi	a5,s9,16
   130d4:	6a079063          	bnez	a5,13774 <_vfprintf_r+0x1a34>
   130d8:	040cf793          	andi	a5,s9,64
   130dc:	320798e3          	bnez	a5,13c0c <_vfprintf_r+0x1ecc>
   130e0:	200cfe13          	andi	t3,s9,512
   130e4:	680e0863          	beqz	t3,13774 <_vfprintf_r+0x1a34>
   130e8:	01412783          	lw	a5,20(sp)
   130ec:	00c12703          	lw	a4,12(sp)
   130f0:	0007a783          	lw	a5,0(a5)
   130f4:	00e78023          	sb	a4,0(a5)
   130f8:	e78ff06f          	j	12770 <_vfprintf_r+0xa30>
   130fc:	00070b13          	mv	s6,a4
   13100:	cf6048e3          	bgtz	s6,12df0 <_vfprintf_r+0x10b0>
   13104:	d15ff06f          	j	12e18 <_vfprintf_r+0x10d8>
   13108:	fff00b13          	li	s6,-1
   1310c:	00068a93          	mv	s5,a3
   13110:	dc5fe06f          	j	11ed4 <_vfprintf_r+0x194>
   13114:	0000e797          	auipc	a5,0xe
   13118:	a4878793          	addi	a5,a5,-1464 # 20b5c <_exit+0x1ac>
   1311c:	02f12823          	sw	a5,48(sp)
   13120:	020cf793          	andi	a5,s9,32
   13124:	36078863          	beqz	a5,13494 <_vfprintf_r+0x1754>
   13128:	01412783          	lw	a5,20(sp)
   1312c:	00778c13          	addi	s8,a5,7
   13130:	ff8c7c13          	andi	s8,s8,-8
   13134:	000c2903          	lw	s2,0(s8)
   13138:	004c2d83          	lw	s11,4(s8)
   1313c:	008c0793          	addi	a5,s8,8
   13140:	00f12a23          	sw	a5,20(sp)
   13144:	001cf793          	andi	a5,s9,1
   13148:	00078e63          	beqz	a5,13164 <_vfprintf_r+0x1424>
   1314c:	01b967b3          	or	a5,s2,s11
   13150:	00078a63          	beqz	a5,13164 <_vfprintf_r+0x1424>
   13154:	03000793          	li	a5,48
   13158:	0af10423          	sb	a5,168(sp)
   1315c:	0b1104a3          	sb	a7,169(sp)
   13160:	002cec93          	ori	s9,s9,2
   13164:	bffcfe93          	andi	t4,s9,-1025
   13168:	00200793          	li	a5,2
   1316c:	8b0ff06f          	j	1221c <_vfprintf_r+0x4dc>
   13170:	000c8e93          	mv	t4,s9
   13174:	d64ff06f          	j	126d8 <_vfprintf_r+0x998>
   13178:	0000e797          	auipc	a5,0xe
   1317c:	9d078793          	addi	a5,a5,-1584 # 20b48 <_exit+0x198>
   13180:	02f12823          	sw	a5,48(sp)
   13184:	f9dff06f          	j	13120 <_vfprintf_r+0x13e0>
   13188:	00812503          	lw	a0,8(sp)
   1318c:	0c410613          	addi	a2,sp,196
   13190:	00048593          	mv	a1,s1
   13194:	698010ef          	jal	1482c <__sprint_r>
   13198:	a20518e3          	bnez	a0,12bc8 <_vfprintf_r+0xe88>
   1319c:	0cc12603          	lw	a2,204(sp)
   131a0:	00098a13          	mv	s4,s3
   131a4:	f58ff06f          	j	128fc <_vfprintf_r+0xbbc>
   131a8:	001ac883          	lbu	a7,1(s5)
   131ac:	200cec93          	ori	s9,s9,512
   131b0:	001a8a93          	addi	s5,s5,1
   131b4:	d1dfe06f          	j	11ed0 <_vfprintf_r+0x190>
   131b8:	001ac883          	lbu	a7,1(s5)
   131bc:	020cec93          	ori	s9,s9,32
   131c0:	001a8a93          	addi	s5,s5,1
   131c4:	d0dfe06f          	j	11ed0 <_vfprintf_r+0x190>
   131c8:	00600793          	li	a5,6
   131cc:	000b0913          	mv	s2,s6
   131d0:	2167e4e3          	bltu	a5,s6,13bd8 <_vfprintf_r+0x1e98>
   131d4:	00090d93          	mv	s11,s2
   131d8:	01812a23          	sw	s8,20(sp)
   131dc:	0000ed17          	auipc	s10,0xe
   131e0:	994d0d13          	addi	s10,s10,-1644 # 20b70 <_exit+0x1c0>
   131e4:	d61fe06f          	j	11f44 <_vfprintf_r+0x204>
   131e8:	01000593          	li	a1,16
   131ec:	0c812703          	lw	a4,200(sp)
   131f0:	0000e817          	auipc	a6,0xe
   131f4:	c9c80813          	addi	a6,a6,-868 # 20e8c <zeroes.0>
   131f8:	6965d663          	bge	a1,s6,13884 <_vfprintf_r+0x1b44>
   131fc:	000a0793          	mv	a5,s4
   13200:	01000c13          	li	s8,16
   13204:	00700913          	li	s2,7
   13208:	00080a13          	mv	s4,a6
   1320c:	00c0006f          	j	13218 <_vfprintf_r+0x14d8>
   13210:	ff0b0b13          	addi	s6,s6,-16
   13214:	676c5463          	bge	s8,s6,1387c <_vfprintf_r+0x1b3c>
   13218:	01060613          	addi	a2,a2,16
   1321c:	00170713          	addi	a4,a4,1
   13220:	0147a023          	sw	s4,0(a5)
   13224:	0187a223          	sw	s8,4(a5)
   13228:	0cc12623          	sw	a2,204(sp)
   1322c:	0ce12423          	sw	a4,200(sp)
   13230:	00878793          	addi	a5,a5,8
   13234:	fce95ee3          	bge	s2,a4,13210 <_vfprintf_r+0x14d0>
   13238:	00812503          	lw	a0,8(sp)
   1323c:	0c410613          	addi	a2,sp,196
   13240:	00048593          	mv	a1,s1
   13244:	5e8010ef          	jal	1482c <__sprint_r>
   13248:	980510e3          	bnez	a0,12bc8 <_vfprintf_r+0xe88>
   1324c:	0cc12603          	lw	a2,204(sp)
   13250:	0c812703          	lw	a4,200(sp)
   13254:	00098793          	mv	a5,s3
   13258:	fb9ff06f          	j	13210 <_vfprintf_r+0x14d0>
   1325c:	02c12703          	lw	a4,44(sp)
   13260:	02812783          	lw	a5,40(sp)
   13264:	00700513          	li	a0,7
   13268:	00ea2023          	sw	a4,0(s4)
   1326c:	0c812703          	lw	a4,200(sp)
   13270:	00f60633          	add	a2,a2,a5
   13274:	00fa2223          	sw	a5,4(s4)
   13278:	00170713          	addi	a4,a4,1
   1327c:	0cc12623          	sw	a2,204(sp)
   13280:	0ce12423          	sw	a4,200(sp)
   13284:	008a0a13          	addi	s4,s4,8
   13288:	bce556e3          	bge	a0,a4,12e54 <_vfprintf_r+0x1114>
   1328c:	00812503          	lw	a0,8(sp)
   13290:	0c410613          	addi	a2,sp,196
   13294:	00048593          	mv	a1,s1
   13298:	594010ef          	jal	1482c <__sprint_r>
   1329c:	920516e3          	bnez	a0,12bc8 <_vfprintf_r+0xe88>
   132a0:	0ac12583          	lw	a1,172(sp)
   132a4:	0cc12603          	lw	a2,204(sp)
   132a8:	00098a13          	mv	s4,s3
   132ac:	ba9ff06f          	j	12e54 <_vfprintf_r+0x1114>
   132b0:	07800793          	li	a5,120
   132b4:	03000713          	li	a4,48
   132b8:	0ae10423          	sb	a4,168(sp)
   132bc:	0af104a3          	sb	a5,169(sp)
   132c0:	06300713          	li	a4,99
   132c4:	00012823          	sw	zero,16(sp)
   132c8:	002cec93          	ori	s9,s9,2
   132cc:	12c10d13          	addi	s10,sp,300
   132d0:	87675863          	bge	a4,s6,12340 <_vfprintf_r+0x600>
   132d4:	00812503          	lw	a0,8(sp)
   132d8:	001b0593          	addi	a1,s6,1
   132dc:	01112823          	sw	a7,16(sp)
   132e0:	a90fe0ef          	jal	11570 <_malloc_r>
   132e4:	01012883          	lw	a7,16(sp)
   132e8:	00050d13          	mv	s10,a0
   132ec:	00051463          	bnez	a0,132f4 <_vfprintf_r+0x15b4>
   132f0:	3280106f          	j	14618 <_vfprintf_r+0x28d8>
   132f4:	00a12823          	sw	a0,16(sp)
   132f8:	848ff06f          	j	12340 <_vfprintf_r+0x600>
   132fc:	00812503          	lw	a0,8(sp)
   13300:	09010913          	addi	s2,sp,144
   13304:	0ac10713          	addi	a4,sp,172
   13308:	0bc10813          	addi	a6,sp,188
   1330c:	0b010793          	addi	a5,sp,176
   13310:	000b0693          	mv	a3,s6
   13314:	00200613          	li	a2,2
   13318:	00090593          	mv	a1,s2
   1331c:	03112223          	sw	a7,36(sp)
   13320:	09f12823          	sw	t6,144(sp)
   13324:	03f12023          	sw	t6,32(sp)
   13328:	09e12a23          	sw	t5,148(sp)
   1332c:	01e12e23          	sw	t5,28(sp)
   13330:	09d12c23          	sw	t4,152(sp)
   13334:	01d12c23          	sw	t4,24(sp)
   13338:	09812e23          	sw	s8,156(sp)
   1333c:	705030ef          	jal	17240 <_ldtoa_r>
   13340:	001cf713          	andi	a4,s9,1
   13344:	01812e83          	lw	t4,24(sp)
   13348:	01c12f03          	lw	t5,28(sp)
   1334c:	02012f83          	lw	t6,32(sp)
   13350:	02412883          	lw	a7,36(sp)
   13354:	00050d13          	mv	s10,a0
   13358:	10071ce3          	bnez	a4,13c70 <_vfprintf_r+0x1f30>
   1335c:	0ac12783          	lw	a5,172(sp)
   13360:	00f12c23          	sw	a5,24(sp)
   13364:	0bc12783          	lw	a5,188(sp)
   13368:	40a787b3          	sub	a5,a5,a0
   1336c:	00f12e23          	sw	a5,28(sp)
   13370:	01812783          	lw	a5,24(sp)
   13374:	ffd00713          	li	a4,-3
   13378:	00e7c463          	blt	a5,a4,13380 <_vfprintf_r+0x1640>
   1337c:	60fb56e3          	bge	s6,a5,14188 <_vfprintf_r+0x2448>
   13380:	01812783          	lw	a5,24(sp)
   13384:	ffe88893          	addi	a7,a7,-2
   13388:	fff78713          	addi	a4,a5,-1
   1338c:	0ae12623          	sw	a4,172(sp)
   13390:	0ff8f693          	zext.b	a3,a7
   13394:	00000613          	li	a2,0
   13398:	0ad10a23          	sb	a3,180(sp)
   1339c:	02b00693          	li	a3,43
   133a0:	00075a63          	bgez	a4,133b4 <_vfprintf_r+0x1674>
   133a4:	01812783          	lw	a5,24(sp)
   133a8:	00100713          	li	a4,1
   133ac:	02d00693          	li	a3,45
   133b0:	40f70733          	sub	a4,a4,a5
   133b4:	0ad10aa3          	sb	a3,181(sp)
   133b8:	00900693          	li	a3,9
   133bc:	00e6c463          	blt	a3,a4,133c4 <_vfprintf_r+0x1684>
   133c0:	0900106f          	j	14450 <_vfprintf_r+0x2710>
   133c4:	0c310813          	addi	a6,sp,195
   133c8:	00080e93          	mv	t4,a6
   133cc:	00a00613          	li	a2,10
   133d0:	06300f13          	li	t5,99
   133d4:	02c767b3          	rem	a5,a4,a2
   133d8:	000e8513          	mv	a0,t4
   133dc:	00070693          	mv	a3,a4
   133e0:	fffe8e93          	addi	t4,t4,-1
   133e4:	03078793          	addi	a5,a5,48
   133e8:	fef50fa3          	sb	a5,-1(a0)
   133ec:	02c74733          	div	a4,a4,a2
   133f0:	fedf42e3          	blt	t5,a3,133d4 <_vfprintf_r+0x1694>
   133f4:	03070713          	addi	a4,a4,48
   133f8:	ffe50693          	addi	a3,a0,-2
   133fc:	feee8fa3          	sb	a4,-1(t4)
   13400:	0106e463          	bltu	a3,a6,13408 <_vfprintf_r+0x16c8>
   13404:	1cc0106f          	j	145d0 <_vfprintf_r+0x2890>
   13408:	0b610613          	addi	a2,sp,182
   1340c:	0006c783          	lbu	a5,0(a3)
   13410:	00168693          	addi	a3,a3,1
   13414:	00160613          	addi	a2,a2,1
   13418:	fef60fa3          	sb	a5,-1(a2)
   1341c:	ff0698e3          	bne	a3,a6,1340c <_vfprintf_r+0x16cc>
   13420:	19010793          	addi	a5,sp,400
   13424:	40a78733          	sub	a4,a5,a0
   13428:	f3770793          	addi	a5,a4,-201
   1342c:	02f12e23          	sw	a5,60(sp)
   13430:	01c12783          	lw	a5,28(sp)
   13434:	03c12683          	lw	a3,60(sp)
   13438:	00100713          	li	a4,1
   1343c:	00d78933          	add	s2,a5,a3
   13440:	00f74463          	blt	a4,a5,13448 <_vfprintf_r+0x1708>
   13444:	03c0106f          	j	14480 <_vfprintf_r+0x2740>
   13448:	02812783          	lw	a5,40(sp)
   1344c:	00f90933          	add	s2,s2,a5
   13450:	fff94693          	not	a3,s2
   13454:	bffcfe13          	andi	t3,s9,-1025
   13458:	41f6d693          	srai	a3,a3,0x1f
   1345c:	100e6793          	ori	a5,t3,256
   13460:	04f12423          	sw	a5,72(sp)
   13464:	00d97db3          	and	s11,s2,a3
   13468:	02012223          	sw	zero,36(sp)
   1346c:	02012023          	sw	zero,32(sp)
   13470:	00012c23          	sw	zero,24(sp)
   13474:	03412783          	lw	a5,52(sp)
   13478:	4e078ce3          	beqz	a5,14170 <_vfprintf_r+0x2430>
   1347c:	02d00713          	li	a4,45
   13480:	04812c83          	lw	s9,72(sp)
   13484:	0ae103a3          	sb	a4,167(sp)
   13488:	00000b13          	li	s6,0
   1348c:	001d8d93          	addi	s11,s11,1
   13490:	ac9fe06f          	j	11f58 <_vfprintf_r+0x218>
   13494:	01412703          	lw	a4,20(sp)
   13498:	010cf793          	andi	a5,s9,16
   1349c:	00072903          	lw	s2,0(a4)
   134a0:	00470713          	addi	a4,a4,4
   134a4:	00e12a23          	sw	a4,20(sp)
   134a8:	06079663          	bnez	a5,13514 <_vfprintf_r+0x17d4>
   134ac:	040cf793          	andi	a5,s9,64
   134b0:	04078e63          	beqz	a5,1350c <_vfprintf_r+0x17cc>
   134b4:	01091913          	slli	s2,s2,0x10
   134b8:	01095913          	srli	s2,s2,0x10
   134bc:	00000d93          	li	s11,0
   134c0:	c85ff06f          	j	13144 <_vfprintf_r+0x1404>
   134c4:	00812503          	lw	a0,8(sp)
   134c8:	0c410613          	addi	a2,sp,196
   134cc:	00048593          	mv	a1,s1
   134d0:	35c010ef          	jal	1482c <__sprint_r>
   134d4:	ee051a63          	bnez	a0,12bc8 <_vfprintf_r+0xe88>
   134d8:	0cc12c03          	lw	s8,204(sp)
   134dc:	0c812903          	lw	s2,200(sp)
   134e0:	00098b13          	mv	s6,s3
   134e4:	f29fe06f          	j	1240c <_vfprintf_r+0x6cc>
   134e8:	00812503          	lw	a0,8(sp)
   134ec:	0c410613          	addi	a2,sp,196
   134f0:	00048593          	mv	a1,s1
   134f4:	338010ef          	jal	1482c <__sprint_r>
   134f8:	ec051863          	bnez	a0,12bc8 <_vfprintf_r+0xe88>
   134fc:	0cc12c03          	lw	s8,204(sp)
   13500:	0c812903          	lw	s2,200(sp)
   13504:	00098b13          	mv	s6,s3
   13508:	f35fe06f          	j	1243c <_vfprintf_r+0x6fc>
   1350c:	200cf793          	andi	a5,s9,512
   13510:	6e079863          	bnez	a5,13c00 <_vfprintf_r+0x1ec0>
   13514:	00000d93          	li	s11,0
   13518:	c2dff06f          	j	13144 <_vfprintf_r+0x1404>
   1351c:	ccccd837          	lui	a6,0xccccd
   13520:	ccccdcb7          	lui	s9,0xccccd
   13524:	03812703          	lw	a4,56(sp)
   13528:	400eff13          	andi	t5,t4,1024
   1352c:	00000613          	li	a2,0
   13530:	19010593          	addi	a1,sp,400
   13534:	00500e13          	li	t3,5
   13538:	ccd80813          	addi	a6,a6,-819 # cccccccd <__BSS_END__+0xccca9f9d>
   1353c:	cccc8c93          	addi	s9,s9,-820 # cccccccc <__BSS_END__+0xccca9f9c>
   13540:	0ff00c13          	li	s8,255
   13544:	0540006f          	j	13598 <_vfprintf_r+0x1858>
   13548:	012d37b3          	sltu	a5,s10,s2
   1354c:	00fd07b3          	add	a5,s10,a5
   13550:	03c7f7b3          	remu	a5,a5,t3
   13554:	40f907b3          	sub	a5,s2,a5
   13558:	00f935b3          	sltu	a1,s2,a5
   1355c:	40bd85b3          	sub	a1,s11,a1
   13560:	03978333          	mul	t1,a5,s9
   13564:	030585b3          	mul	a1,a1,a6
   13568:	0307b533          	mulhu	a0,a5,a6
   1356c:	006585b3          	add	a1,a1,t1
   13570:	030787b3          	mul	a5,a5,a6
   13574:	00a585b3          	add	a1,a1,a0
   13578:	01f59513          	slli	a0,a1,0x1f
   1357c:	0015d593          	srli	a1,a1,0x1
   13580:	0017d793          	srli	a5,a5,0x1
   13584:	00f567b3          	or	a5,a0,a5
   13588:	480d82e3          	beqz	s11,1420c <_vfprintf_r+0x24cc>
   1358c:	00058d93          	mv	s11,a1
   13590:	00078913          	mv	s2,a5
   13594:	00068593          	mv	a1,a3
   13598:	01b90d33          	add	s10,s2,s11
   1359c:	012d37b3          	sltu	a5,s10,s2
   135a0:	00fd07b3          	add	a5,s10,a5
   135a4:	03c7f7b3          	remu	a5,a5,t3
   135a8:	fff58693          	addi	a3,a1,-1
   135ac:	00160613          	addi	a2,a2,1
   135b0:	40f907b3          	sub	a5,s2,a5
   135b4:	00f93533          	sltu	a0,s2,a5
   135b8:	40ad8533          	sub	a0,s11,a0
   135bc:	0307b333          	mulhu	t1,a5,a6
   135c0:	03050533          	mul	a0,a0,a6
   135c4:	030787b3          	mul	a5,a5,a6
   135c8:	00650533          	add	a0,a0,t1
   135cc:	01f51513          	slli	a0,a0,0x1f
   135d0:	0017d793          	srli	a5,a5,0x1
   135d4:	00f567b3          	or	a5,a0,a5
   135d8:	00279513          	slli	a0,a5,0x2
   135dc:	00f507b3          	add	a5,a0,a5
   135e0:	00179793          	slli	a5,a5,0x1
   135e4:	40f907b3          	sub	a5,s2,a5
   135e8:	03078793          	addi	a5,a5,48
   135ec:	fef58fa3          	sb	a5,-1(a1)
   135f0:	f40f0ce3          	beqz	t5,13548 <_vfprintf_r+0x1808>
   135f4:	00074783          	lbu	a5,0(a4)
   135f8:	f4f618e3          	bne	a2,a5,13548 <_vfprintf_r+0x1808>
   135fc:	f58606e3          	beq	a2,s8,13548 <_vfprintf_r+0x1808>
   13600:	4c0d9c63          	bnez	s11,13ad8 <_vfprintf_r+0x1d98>
   13604:	00900793          	li	a5,9
   13608:	4d27e863          	bltu	a5,s2,13ad8 <_vfprintf_r+0x1d98>
   1360c:	00068d13          	mv	s10,a3
   13610:	19010793          	addi	a5,sp,400
   13614:	00c12e23          	sw	a2,28(sp)
   13618:	02e12c23          	sw	a4,56(sp)
   1361c:	41a78933          	sub	s2,a5,s10
   13620:	000e8c93          	mv	s9,t4
   13624:	b9dfe06f          	j	121c0 <_vfprintf_r+0x480>
   13628:	0c812703          	lw	a4,200(sp)
   1362c:	0000d517          	auipc	a0,0xd
   13630:	54c50513          	addi	a0,a0,1356 # 20b78 <_exit+0x1c8>
   13634:	00aa2023          	sw	a0,0(s4)
   13638:	00160613          	addi	a2,a2,1
   1363c:	00100513          	li	a0,1
   13640:	00170713          	addi	a4,a4,1
   13644:	00aa2223          	sw	a0,4(s4)
   13648:	0cc12623          	sw	a2,204(sp)
   1364c:	0ce12423          	sw	a4,200(sp)
   13650:	00700513          	li	a0,7
   13654:	008a0a13          	addi	s4,s4,8
   13658:	52e54a63          	blt	a0,a4,13b8c <_vfprintf_r+0x1e4c>
   1365c:	12059663          	bnez	a1,13788 <_vfprintf_r+0x1a48>
   13660:	01c12783          	lw	a5,28(sp)
   13664:	001cf713          	andi	a4,s9,1
   13668:	00f76733          	or	a4,a4,a5
   1366c:	00071463          	bnez	a4,13674 <_vfprintf_r+0x1934>
   13670:	9b5fe06f          	j	12024 <_vfprintf_r+0x2e4>
   13674:	02c12703          	lw	a4,44(sp)
   13678:	02812783          	lw	a5,40(sp)
   1367c:	00700593          	li	a1,7
   13680:	00ea2023          	sw	a4,0(s4)
   13684:	0c812703          	lw	a4,200(sp)
   13688:	00c78633          	add	a2,a5,a2
   1368c:	00fa2223          	sw	a5,4(s4)
   13690:	00170713          	addi	a4,a4,1
   13694:	0cc12623          	sw	a2,204(sp)
   13698:	0ce12423          	sw	a4,200(sp)
   1369c:	5ae5c463          	blt	a1,a4,13c44 <_vfprintf_r+0x1f04>
   136a0:	008a0a13          	addi	s4,s4,8
   136a4:	1180006f          	j	137bc <_vfprintf_r+0x1a7c>
   136a8:	00812503          	lw	a0,8(sp)
   136ac:	93cfd0ef          	jal	107e8 <__sinit>
   136b0:	ef0fe06f          	j	11da0 <_vfprintf_r+0x60>
   136b4:	00812503          	lw	a0,8(sp)
   136b8:	0c410613          	addi	a2,sp,196
   136bc:	00048593          	mv	a1,s1
   136c0:	16c010ef          	jal	1482c <__sprint_r>
   136c4:	d0051263          	bnez	a0,12bc8 <_vfprintf_r+0xe88>
   136c8:	0cc12603          	lw	a2,204(sp)
   136cc:	00098a13          	mv	s4,s3
   136d0:	9f0ff06f          	j	128c0 <_vfprintf_r+0xb80>
   136d4:	000d0813          	mv	a6,s10
   136d8:	01260633          	add	a2,a2,s2
   136dc:	00178793          	addi	a5,a5,1
   136e0:	010a2023          	sw	a6,0(s4)
   136e4:	929fe06f          	j	1200c <_vfprintf_r+0x2cc>
   136e8:	0d012783          	lw	a5,208(sp)
   136ec:	08010593          	addi	a1,sp,128
   136f0:	09010513          	addi	a0,sp,144
   136f4:	08f12823          	sw	a5,144(sp)
   136f8:	0d412783          	lw	a5,212(sp)
   136fc:	08012023          	sw	zero,128(sp)
   13700:	08012223          	sw	zero,132(sp)
   13704:	08f12a23          	sw	a5,148(sp)
   13708:	0d812783          	lw	a5,216(sp)
   1370c:	08012423          	sw	zero,136(sp)
   13710:	08012623          	sw	zero,140(sp)
   13714:	08f12c23          	sw	a5,152(sp)
   13718:	0dc12783          	lw	a5,220(sp)
   1371c:	08f12e23          	sw	a5,156(sp)
   13720:	6ec0a0ef          	jal	1de0c <__letf2>
   13724:	01012883          	lw	a7,16(sp)
   13728:	2e0548e3          	bltz	a0,14218 <_vfprintf_r+0x24d8>
   1372c:	0a714703          	lbu	a4,167(sp)
   13730:	04700693          	li	a3,71
   13734:	0000dd17          	auipc	s10,0xd
   13738:	408d0d13          	addi	s10,s10,1032 # 20b3c <_exit+0x18c>
   1373c:	0116c663          	blt	a3,a7,13748 <_vfprintf_r+0x1a08>
   13740:	0000dd17          	auipc	s10,0xd
   13744:	3f8d0d13          	addi	s10,s10,1016 # 20b38 <_exit+0x188>
   13748:	00012823          	sw	zero,16(sp)
   1374c:	02012223          	sw	zero,36(sp)
   13750:	02012023          	sw	zero,32(sp)
   13754:	00012c23          	sw	zero,24(sp)
   13758:	f7fcfc93          	andi	s9,s9,-129
   1375c:	00300d93          	li	s11,3
   13760:	00300913          	li	s2,3
   13764:	00000b13          	li	s6,0
   13768:	00070463          	beqz	a4,13770 <_vfprintf_r+0x1a30>
   1376c:	a79fe06f          	j	121e4 <_vfprintf_r+0x4a4>
   13770:	fe8fe06f          	j	11f58 <_vfprintf_r+0x218>
   13774:	01412783          	lw	a5,20(sp)
   13778:	00c12703          	lw	a4,12(sp)
   1377c:	0007a783          	lw	a5,0(a5)
   13780:	00e7a023          	sw	a4,0(a5)
   13784:	fedfe06f          	j	12770 <_vfprintf_r+0xa30>
   13788:	02c12703          	lw	a4,44(sp)
   1378c:	02812783          	lw	a5,40(sp)
   13790:	00700513          	li	a0,7
   13794:	00ea2023          	sw	a4,0(s4)
   13798:	0c812703          	lw	a4,200(sp)
   1379c:	00c78633          	add	a2,a5,a2
   137a0:	00fa2223          	sw	a5,4(s4)
   137a4:	00170713          	addi	a4,a4,1
   137a8:	0cc12623          	sw	a2,204(sp)
   137ac:	0ce12423          	sw	a4,200(sp)
   137b0:	008a0a13          	addi	s4,s4,8
   137b4:	48e54863          	blt	a0,a4,13c44 <_vfprintf_r+0x1f04>
   137b8:	3205c0e3          	bltz	a1,142d8 <_vfprintf_r+0x2598>
   137bc:	01c12783          	lw	a5,28(sp)
   137c0:	00170713          	addi	a4,a4,1
   137c4:	01aa2023          	sw	s10,0(s4)
   137c8:	00c78633          	add	a2,a5,a2
   137cc:	00fa2223          	sw	a5,4(s4)
   137d0:	0cc12623          	sw	a2,204(sp)
   137d4:	0ce12423          	sw	a4,200(sp)
   137d8:	00700793          	li	a5,7
   137dc:	00e7c463          	blt	a5,a4,137e4 <_vfprintf_r+0x1aa4>
   137e0:	841fe06f          	j	12020 <_vfprintf_r+0x2e0>
   137e4:	cf5fe06f          	j	124d8 <_vfprintf_r+0x798>
   137e8:	000d0513          	mv	a0,s10
   137ec:	03112a23          	sw	a7,52(sp)
   137f0:	f6cfd0ef          	jal	10f5c <strlen>
   137f4:	0a714703          	lbu	a4,167(sp)
   137f8:	fff54693          	not	a3,a0
   137fc:	41f6d693          	srai	a3,a3,0x1f
   13800:	01812a23          	sw	s8,20(sp)
   13804:	00012823          	sw	zero,16(sp)
   13808:	02012223          	sw	zero,36(sp)
   1380c:	02012023          	sw	zero,32(sp)
   13810:	00012c23          	sw	zero,24(sp)
   13814:	03412883          	lw	a7,52(sp)
   13818:	00050913          	mv	s2,a0
   1381c:	00d57db3          	and	s11,a0,a3
   13820:	00000b13          	li	s6,0
   13824:	00070463          	beqz	a4,1382c <_vfprintf_r+0x1aec>
   13828:	9bdfe06f          	j	121e4 <_vfprintf_r+0x4a4>
   1382c:	f2cfe06f          	j	11f58 <_vfprintf_r+0x218>
   13830:	000a8813          	mv	a6,s5
   13834:	01812a83          	lw	s5,24(sp)
   13838:	000a0793          	mv	a5,s4
   1383c:	00048a13          	mv	s4,s1
   13840:	00078493          	mv	s1,a5
   13844:	014c0c33          	add	s8,s8,s4
   13848:	00190913          	addi	s2,s2,1
   1384c:	010b2023          	sw	a6,0(s6)
   13850:	c45fe06f          	j	12494 <_vfprintf_r+0x754>
   13854:	0dc12783          	lw	a5,220(sp)
   13858:	3c07ce63          	bltz	a5,13c34 <_vfprintf_r+0x1ef4>
   1385c:	0a714703          	lbu	a4,167(sp)
   13860:	04700693          	li	a3,71
   13864:	0000dd17          	auipc	s10,0xd
   13868:	2e0d0d13          	addi	s10,s10,736 # 20b44 <_exit+0x194>
   1386c:	ed16cee3          	blt	a3,a7,13748 <_vfprintf_r+0x1a08>
   13870:	0000dd17          	auipc	s10,0xd
   13874:	2d0d0d13          	addi	s10,s10,720 # 20b40 <_exit+0x190>
   13878:	ed1ff06f          	j	13748 <_vfprintf_r+0x1a08>
   1387c:	000a0813          	mv	a6,s4
   13880:	00078a13          	mv	s4,a5
   13884:	01660633          	add	a2,a2,s6
   13888:	00170713          	addi	a4,a4,1
   1388c:	010a2023          	sw	a6,0(s4)
   13890:	016a2223          	sw	s6,4(s4)
   13894:	0cc12623          	sw	a2,204(sp)
   13898:	0ce12423          	sw	a4,200(sp)
   1389c:	00700593          	li	a1,7
   138a0:	008a0a13          	addi	s4,s4,8
   138a4:	d8e5d663          	bge	a1,a4,12e30 <_vfprintf_r+0x10f0>
   138a8:	00812503          	lw	a0,8(sp)
   138ac:	0c410613          	addi	a2,sp,196
   138b0:	00048593          	mv	a1,s1
   138b4:	779000ef          	jal	1482c <__sprint_r>
   138b8:	b0051863          	bnez	a0,12bc8 <_vfprintf_r+0xe88>
   138bc:	0cc12603          	lw	a2,204(sp)
   138c0:	00098a13          	mv	s4,s3
   138c4:	d6cff06f          	j	12e30 <_vfprintf_r+0x10f0>
   138c8:	01c12783          	lw	a5,28(sp)
   138cc:	03512a23          	sw	s5,52(sp)
   138d0:	02012a83          	lw	s5,32(sp)
   138d4:	00fd07b3          	add	a5,s10,a5
   138d8:	05912423          	sw	s9,72(sp)
   138dc:	05712623          	sw	s7,76(sp)
   138e0:	03b12023          	sw	s11,32(sp)
   138e4:	02412d83          	lw	s11,36(sp)
   138e8:	03a12223          	sw	s10,36(sp)
   138ec:	03812c83          	lw	s9,56(sp)
   138f0:	000c0d13          	mv	s10,s8
   138f4:	00812903          	lw	s2,8(sp)
   138f8:	04412c03          	lw	s8,68(sp)
   138fc:	00700813          	li	a6,7
   13900:	01000713          	li	a4,16
   13904:	0000db17          	auipc	s6,0xd
   13908:	588b0b13          	addi	s6,s6,1416 # 20e8c <zeroes.0>
   1390c:	000a0593          	mv	a1,s4
   13910:	00078b93          	mv	s7,a5
   13914:	09505663          	blez	s5,139a0 <_vfprintf_r+0x1c60>
   13918:	17b05063          	blez	s11,13a78 <_vfprintf_r+0x1d38>
   1391c:	fffd8d93          	addi	s11,s11,-1
   13920:	04012783          	lw	a5,64(sp)
   13924:	01860633          	add	a2,a2,s8
   13928:	0185a223          	sw	s8,4(a1)
   1392c:	00f5a023          	sw	a5,0(a1)
   13930:	0c812783          	lw	a5,200(sp)
   13934:	0cc12623          	sw	a2,204(sp)
   13938:	00858593          	addi	a1,a1,8
   1393c:	00178793          	addi	a5,a5,1
   13940:	0cf12423          	sw	a5,200(sp)
   13944:	14f84063          	blt	a6,a5,13a84 <_vfprintf_r+0x1d44>
   13948:	000cc683          	lbu	a3,0(s9)
   1394c:	41ab8a33          	sub	s4,s7,s10
   13950:	0146d463          	bge	a3,s4,13958 <_vfprintf_r+0x1c18>
   13954:	00068a13          	mv	s4,a3
   13958:	03405663          	blez	s4,13984 <_vfprintf_r+0x1c44>
   1395c:	0c812683          	lw	a3,200(sp)
   13960:	01460633          	add	a2,a2,s4
   13964:	01a5a023          	sw	s10,0(a1)
   13968:	00168693          	addi	a3,a3,1
   1396c:	0145a223          	sw	s4,4(a1)
   13970:	0cc12623          	sw	a2,204(sp)
   13974:	0cd12423          	sw	a3,200(sp)
   13978:	12d84a63          	blt	a6,a3,13aac <_vfprintf_r+0x1d6c>
   1397c:	000cc683          	lbu	a3,0(s9)
   13980:	00858593          	addi	a1,a1,8
   13984:	fffa4513          	not	a0,s4
   13988:	41f55513          	srai	a0,a0,0x1f
   1398c:	00aa77b3          	and	a5,s4,a0
   13990:	40f68a33          	sub	s4,a3,a5
   13994:	05404263          	bgtz	s4,139d8 <_vfprintf_r+0x1c98>
   13998:	00dd0d33          	add	s10,s10,a3
   1399c:	f7504ee3          	bgtz	s5,13918 <_vfprintf_r+0x1bd8>
   139a0:	f7b04ee3          	bgtz	s11,1391c <_vfprintf_r+0x1bdc>
   139a4:	01c12783          	lw	a5,28(sp)
   139a8:	000d0c13          	mv	s8,s10
   139ac:	02412d03          	lw	s10,36(sp)
   139b0:	03912c23          	sw	s9,56(sp)
   139b4:	03412a83          	lw	s5,52(sp)
   139b8:	00fd0733          	add	a4,s10,a5
   139bc:	04812c83          	lw	s9,72(sp)
   139c0:	04c12b83          	lw	s7,76(sp)
   139c4:	02012d83          	lw	s11,32(sp)
   139c8:	00058a13          	mv	s4,a1
   139cc:	c7877a63          	bgeu	a4,s8,12e40 <_vfprintf_r+0x1100>
   139d0:	00070c13          	mv	s8,a4
   139d4:	c6cff06f          	j	12e40 <_vfprintf_r+0x1100>
   139d8:	0c812683          	lw	a3,200(sp)
   139dc:	0000df17          	auipc	t5,0xd
   139e0:	4b0f0f13          	addi	t5,t5,1200 # 20e8c <zeroes.0>
   139e4:	07475463          	bge	a4,s4,13a4c <_vfprintf_r+0x1d0c>
   139e8:	01612c23          	sw	s6,24(sp)
   139ec:	00c0006f          	j	139f8 <_vfprintf_r+0x1cb8>
   139f0:	ff0a0a13          	addi	s4,s4,-16
   139f4:	05475a63          	bge	a4,s4,13a48 <_vfprintf_r+0x1d08>
   139f8:	01060613          	addi	a2,a2,16
   139fc:	00168693          	addi	a3,a3,1
   13a00:	0165a023          	sw	s6,0(a1)
   13a04:	00e5a223          	sw	a4,4(a1)
   13a08:	0cc12623          	sw	a2,204(sp)
   13a0c:	0cd12423          	sw	a3,200(sp)
   13a10:	00858593          	addi	a1,a1,8
   13a14:	fcd85ee3          	bge	a6,a3,139f0 <_vfprintf_r+0x1cb0>
   13a18:	0c410613          	addi	a2,sp,196
   13a1c:	00048593          	mv	a1,s1
   13a20:	00090513          	mv	a0,s2
   13a24:	609000ef          	jal	1482c <__sprint_r>
   13a28:	9a051063          	bnez	a0,12bc8 <_vfprintf_r+0xe88>
   13a2c:	01000713          	li	a4,16
   13a30:	ff0a0a13          	addi	s4,s4,-16
   13a34:	0cc12603          	lw	a2,204(sp)
   13a38:	0c812683          	lw	a3,200(sp)
   13a3c:	00098593          	mv	a1,s3
   13a40:	00700813          	li	a6,7
   13a44:	fb474ae3          	blt	a4,s4,139f8 <_vfprintf_r+0x1cb8>
   13a48:	01812f03          	lw	t5,24(sp)
   13a4c:	01460633          	add	a2,a2,s4
   13a50:	00168693          	addi	a3,a3,1
   13a54:	01e5a023          	sw	t5,0(a1)
   13a58:	0145a223          	sw	s4,4(a1)
   13a5c:	0cc12623          	sw	a2,204(sp)
   13a60:	0cd12423          	sw	a3,200(sp)
   13a64:	76d84a63          	blt	a6,a3,141d8 <_vfprintf_r+0x2498>
   13a68:	000cc683          	lbu	a3,0(s9)
   13a6c:	00858593          	addi	a1,a1,8
   13a70:	00dd0d33          	add	s10,s10,a3
   13a74:	f29ff06f          	j	1399c <_vfprintf_r+0x1c5c>
   13a78:	fffc8c93          	addi	s9,s9,-1
   13a7c:	fffa8a93          	addi	s5,s5,-1
   13a80:	ea1ff06f          	j	13920 <_vfprintf_r+0x1be0>
   13a84:	0c410613          	addi	a2,sp,196
   13a88:	00048593          	mv	a1,s1
   13a8c:	00090513          	mv	a0,s2
   13a90:	59d000ef          	jal	1482c <__sprint_r>
   13a94:	92051a63          	bnez	a0,12bc8 <_vfprintf_r+0xe88>
   13a98:	0cc12603          	lw	a2,204(sp)
   13a9c:	00098593          	mv	a1,s3
   13aa0:	01000713          	li	a4,16
   13aa4:	00700813          	li	a6,7
   13aa8:	ea1ff06f          	j	13948 <_vfprintf_r+0x1c08>
   13aac:	0c410613          	addi	a2,sp,196
   13ab0:	00048593          	mv	a1,s1
   13ab4:	00090513          	mv	a0,s2
   13ab8:	575000ef          	jal	1482c <__sprint_r>
   13abc:	90051663          	bnez	a0,12bc8 <_vfprintf_r+0xe88>
   13ac0:	000cc683          	lbu	a3,0(s9)
   13ac4:	0cc12603          	lw	a2,204(sp)
   13ac8:	00098593          	mv	a1,s3
   13acc:	01000713          	li	a4,16
   13ad0:	00700813          	li	a6,7
   13ad4:	eb1ff06f          	j	13984 <_vfprintf_r+0x1c44>
   13ad8:	04412783          	lw	a5,68(sp)
   13adc:	04012583          	lw	a1,64(sp)
   13ae0:	03012a23          	sw	a6,52(sp)
   13ae4:	40f686b3          	sub	a3,a3,a5
   13ae8:	00078613          	mv	a2,a5
   13aec:	00068513          	mv	a0,a3
   13af0:	03e12223          	sw	t5,36(sp)
   13af4:	03d12023          	sw	t4,32(sp)
   13af8:	01112e23          	sw	a7,28(sp)
   13afc:	00e12c23          	sw	a4,24(sp)
   13b00:	00d12823          	sw	a3,16(sp)
   13b04:	671020ef          	jal	16974 <strncpy>
   13b08:	012d37b3          	sltu	a5,s10,s2
   13b0c:	00500613          	li	a2,5
   13b10:	00fd07b3          	add	a5,s10,a5
   13b14:	02c7f7b3          	remu	a5,a5,a2
   13b18:	01812703          	lw	a4,24(sp)
   13b1c:	ccccd337          	lui	t1,0xccccd
   13b20:	ccccd537          	lui	a0,0xccccd
   13b24:	00174583          	lbu	a1,1(a4)
   13b28:	ccd30313          	addi	t1,t1,-819 # cccccccd <__BSS_END__+0xccca9f9d>
   13b2c:	ccc50513          	addi	a0,a0,-820 # cccccccc <__BSS_END__+0xccca9f9c>
   13b30:	00b035b3          	snez	a1,a1
   13b34:	00b70733          	add	a4,a4,a1
   13b38:	01012683          	lw	a3,16(sp)
   13b3c:	01c12883          	lw	a7,28(sp)
   13b40:	02012e83          	lw	t4,32(sp)
   13b44:	02412f03          	lw	t5,36(sp)
   13b48:	03412803          	lw	a6,52(sp)
   13b4c:	00000613          	li	a2,0
   13b50:	00500e13          	li	t3,5
   13b54:	40f907b3          	sub	a5,s2,a5
   13b58:	00f935b3          	sltu	a1,s2,a5
   13b5c:	40bd85b3          	sub	a1,s11,a1
   13b60:	02a78533          	mul	a0,a5,a0
   13b64:	026585b3          	mul	a1,a1,t1
   13b68:	0267bfb3          	mulhu	t6,a5,t1
   13b6c:	00a585b3          	add	a1,a1,a0
   13b70:	02678533          	mul	a0,a5,t1
   13b74:	01f585b3          	add	a1,a1,t6
   13b78:	01f59793          	slli	a5,a1,0x1f
   13b7c:	0015d593          	srli	a1,a1,0x1
   13b80:	00155513          	srli	a0,a0,0x1
   13b84:	00a7e7b3          	or	a5,a5,a0
   13b88:	a05ff06f          	j	1358c <_vfprintf_r+0x184c>
   13b8c:	00812503          	lw	a0,8(sp)
   13b90:	0c410613          	addi	a2,sp,196
   13b94:	00048593          	mv	a1,s1
   13b98:	495000ef          	jal	1482c <__sprint_r>
   13b9c:	00050463          	beqz	a0,13ba4 <_vfprintf_r+0x1e64>
   13ba0:	828ff06f          	j	12bc8 <_vfprintf_r+0xe88>
   13ba4:	0ac12583          	lw	a1,172(sp)
   13ba8:	0cc12603          	lw	a2,204(sp)
   13bac:	00098a13          	mv	s4,s3
   13bb0:	aadff06f          	j	1365c <_vfprintf_r+0x191c>
   13bb4:	00812503          	lw	a0,8(sp)
   13bb8:	0c410613          	addi	a2,sp,196
   13bbc:	00048593          	mv	a1,s1
   13bc0:	46d000ef          	jal	1482c <__sprint_r>
   13bc4:	00050463          	beqz	a0,13bcc <_vfprintf_r+0x1e8c>
   13bc8:	800ff06f          	j	12bc8 <_vfprintf_r+0xe88>
   13bcc:	0cc12603          	lw	a2,204(sp)
   13bd0:	00098a13          	mv	s4,s3
   13bd4:	a44ff06f          	j	12e18 <_vfprintf_r+0x10d8>
   13bd8:	00600913          	li	s2,6
   13bdc:	df8ff06f          	j	131d4 <_vfprintf_r+0x1494>
   13be0:	0ff97913          	zext.b	s2,s2
   13be4:	00000d93          	li	s11,0
   13be8:	e2cfe06f          	j	12214 <_vfprintf_r+0x4d4>
   13bec:	01891913          	slli	s2,s2,0x18
   13bf0:	41895913          	srai	s2,s2,0x18
   13bf4:	41f95d93          	srai	s11,s2,0x1f
   13bf8:	000d8793          	mv	a5,s11
   13bfc:	d9cfe06f          	j	12198 <_vfprintf_r+0x458>
   13c00:	0ff97913          	zext.b	s2,s2
   13c04:	00000d93          	li	s11,0
   13c08:	d3cff06f          	j	13144 <_vfprintf_r+0x1404>
   13c0c:	01412783          	lw	a5,20(sp)
   13c10:	00c12703          	lw	a4,12(sp)
   13c14:	0007a783          	lw	a5,0(a5)
   13c18:	00e79023          	sh	a4,0(a5)
   13c1c:	b55fe06f          	j	12770 <_vfprintf_r+0xa30>
   13c20:	00812503          	lw	a0,8(sp)
   13c24:	0c410613          	addi	a2,sp,196
   13c28:	00048593          	mv	a1,s1
   13c2c:	401000ef          	jal	1482c <__sprint_r>
   13c30:	c54fe06f          	j	12084 <_vfprintf_r+0x344>
   13c34:	02d00793          	li	a5,45
   13c38:	0af103a3          	sb	a5,167(sp)
   13c3c:	02d00713          	li	a4,45
   13c40:	c21ff06f          	j	13860 <_vfprintf_r+0x1b20>
   13c44:	00812503          	lw	a0,8(sp)
   13c48:	0c410613          	addi	a2,sp,196
   13c4c:	00048593          	mv	a1,s1
   13c50:	3dd000ef          	jal	1482c <__sprint_r>
   13c54:	00050463          	beqz	a0,13c5c <_vfprintf_r+0x1f1c>
   13c58:	f71fe06f          	j	12bc8 <_vfprintf_r+0xe88>
   13c5c:	0ac12583          	lw	a1,172(sp)
   13c60:	0cc12603          	lw	a2,204(sp)
   13c64:	0c812703          	lw	a4,200(sp)
   13c68:	00098a13          	mv	s4,s3
   13c6c:	b4dff06f          	j	137b8 <_vfprintf_r+0x1a78>
   13c70:	01650733          	add	a4,a0,s6
   13c74:	04700613          	li	a2,71
   13c78:	08010593          	addi	a1,sp,128
   13c7c:	00090513          	mv	a0,s2
   13c80:	02e12023          	sw	a4,32(sp)
   13c84:	00c12e23          	sw	a2,28(sp)
   13c88:	01112c23          	sw	a7,24(sp)
   13c8c:	09f12823          	sw	t6,144(sp)
   13c90:	09e12a23          	sw	t5,148(sp)
   13c94:	09d12c23          	sw	t4,152(sp)
   13c98:	09812e23          	sw	s8,156(sp)
   13c9c:	08012023          	sw	zero,128(sp)
   13ca0:	08012223          	sw	zero,132(sp)
   13ca4:	08012423          	sw	zero,136(sp)
   13ca8:	08012623          	sw	zero,140(sp)
   13cac:	765090ef          	jal	1dc10 <__eqtf2>
   13cb0:	01812883          	lw	a7,24(sp)
   13cb4:	01c12603          	lw	a2,28(sp)
   13cb8:	02012703          	lw	a4,32(sp)
   13cbc:	58050c63          	beqz	a0,14254 <_vfprintf_r+0x2514>
   13cc0:	0bc12783          	lw	a5,188(sp)
   13cc4:	00e7fe63          	bgeu	a5,a4,13ce0 <_vfprintf_r+0x1fa0>
   13cc8:	03000593          	li	a1,48
   13ccc:	00178693          	addi	a3,a5,1
   13cd0:	0ad12e23          	sw	a3,188(sp)
   13cd4:	00b78023          	sb	a1,0(a5)
   13cd8:	0bc12783          	lw	a5,188(sp)
   13cdc:	fee7e8e3          	bltu	a5,a4,13ccc <_vfprintf_r+0x1f8c>
   13ce0:	0ac12703          	lw	a4,172(sp)
   13ce4:	00e12c23          	sw	a4,24(sp)
   13ce8:	41a787b3          	sub	a5,a5,s10
   13cec:	04700713          	li	a4,71
   13cf0:	00f12e23          	sw	a5,28(sp)
   13cf4:	e6e60e63          	beq	a2,a4,13370 <_vfprintf_r+0x1630>
   13cf8:	04600713          	li	a4,70
   13cfc:	6ee60263          	beq	a2,a4,143e0 <_vfprintf_r+0x26a0>
   13d00:	01812783          	lw	a5,24(sp)
   13d04:	fff78713          	addi	a4,a5,-1
   13d08:	e84ff06f          	j	1338c <_vfprintf_r+0x164c>
   13d0c:	001b0693          	addi	a3,s6,1
   13d10:	00200613          	li	a2,2
   13d14:	00812503          	lw	a0,8(sp)
   13d18:	09010913          	addi	s2,sp,144
   13d1c:	0ac10713          	addi	a4,sp,172
   13d20:	00090593          	mv	a1,s2
   13d24:	0bc10813          	addi	a6,sp,188
   13d28:	0b010793          	addi	a5,sp,176
   13d2c:	05112623          	sw	a7,76(sp)
   13d30:	02d12223          	sw	a3,36(sp)
   13d34:	09f12823          	sw	t6,144(sp)
   13d38:	03f12023          	sw	t6,32(sp)
   13d3c:	09e12a23          	sw	t5,148(sp)
   13d40:	01e12e23          	sw	t5,28(sp)
   13d44:	09d12c23          	sw	t4,152(sp)
   13d48:	01d12c23          	sw	t4,24(sp)
   13d4c:	09812e23          	sw	s8,156(sp)
   13d50:	4f0030ef          	jal	17240 <_ldtoa_r>
   13d54:	04c12883          	lw	a7,76(sp)
   13d58:	02412683          	lw	a3,36(sp)
   13d5c:	04600593          	li	a1,70
   13d60:	fdf8f613          	andi	a2,a7,-33
   13d64:	01812e83          	lw	t4,24(sp)
   13d68:	01c12f03          	lw	t5,28(sp)
   13d6c:	02012f83          	lw	t6,32(sp)
   13d70:	00050d13          	mv	s10,a0
   13d74:	00d50733          	add	a4,a0,a3
   13d78:	08b61ae3          	bne	a2,a1,1460c <_vfprintf_r+0x28cc>
   13d7c:	000d4503          	lbu	a0,0(s10)
   13d80:	03000593          	li	a1,48
   13d84:	5cb50c63          	beq	a0,a1,1435c <_vfprintf_r+0x261c>
   13d88:	0ac12683          	lw	a3,172(sp)
   13d8c:	08010593          	addi	a1,sp,128
   13d90:	00d70733          	add	a4,a4,a3
   13d94:	ee9ff06f          	j	13c7c <_vfprintf_r+0x1f3c>
   13d98:	09010913          	addi	s2,sp,144
   13d9c:	08010593          	addi	a1,sp,128
   13da0:	0ac10613          	addi	a2,sp,172
   13da4:	00090513          	mv	a0,s2
   13da8:	03112e23          	sw	a7,60(sp)
   13dac:	09f12023          	sw	t6,128(sp)
   13db0:	09e12223          	sw	t5,132(sp)
   13db4:	09d12423          	sw	t4,136(sp)
   13db8:	00b12c23          	sw	a1,24(sp)
   13dbc:	09812623          	sw	s8,140(sp)
   13dc0:	250030ef          	jal	17010 <frexpl>
   13dc4:	09012803          	lw	a6,144(sp)
   13dc8:	0000d717          	auipc	a4,0xd
   13dcc:	0e870713          	addi	a4,a4,232 # 20eb0 <blanks.1+0x14>
   13dd0:	00072503          	lw	a0,0(a4)
   13dd4:	09012023          	sw	a6,128(sp)
   13dd8:	09412803          	lw	a6,148(sp)
   13ddc:	00472603          	lw	a2,4(a4)
   13de0:	00872683          	lw	a3,8(a4)
   13de4:	09012223          	sw	a6,132(sp)
   13de8:	09812803          	lw	a6,152(sp)
   13dec:	00c72703          	lw	a4,12(a4)
   13df0:	01812583          	lw	a1,24(sp)
   13df4:	09012423          	sw	a6,136(sp)
   13df8:	09c12803          	lw	a6,156(sp)
   13dfc:	06a12823          	sw	a0,112(sp)
   13e00:	06c12a23          	sw	a2,116(sp)
   13e04:	00090513          	mv	a0,s2
   13e08:	07010613          	addi	a2,sp,112
   13e0c:	09012623          	sw	a6,140(sp)
   13e10:	06d12c23          	sw	a3,120(sp)
   13e14:	06e12e23          	sw	a4,124(sp)
   13e18:	1240a0ef          	jal	1df3c <__multf3>
   13e1c:	01812583          	lw	a1,24(sp)
   13e20:	09012f03          	lw	t5,144(sp)
   13e24:	09412e83          	lw	t4,148(sp)
   13e28:	09812803          	lw	a6,152(sp)
   13e2c:	00090513          	mv	a0,s2
   13e30:	02b12223          	sw	a1,36(sp)
   13e34:	03e12023          	sw	t5,32(sp)
   13e38:	01d12e23          	sw	t4,28(sp)
   13e3c:	01012c23          	sw	a6,24(sp)
   13e40:	08012023          	sw	zero,128(sp)
   13e44:	08012223          	sw	zero,132(sp)
   13e48:	08012423          	sw	zero,136(sp)
   13e4c:	08012623          	sw	zero,140(sp)
   13e50:	5c1090ef          	jal	1dc10 <__eqtf2>
   13e54:	09c12d83          	lw	s11,156(sp)
   13e58:	01812803          	lw	a6,24(sp)
   13e5c:	01c12e83          	lw	t4,28(sp)
   13e60:	02012f03          	lw	t5,32(sp)
   13e64:	02412583          	lw	a1,36(sp)
   13e68:	03c12883          	lw	a7,60(sp)
   13e6c:	00051663          	bnez	a0,13e78 <_vfprintf_r+0x2138>
   13e70:	00100713          	li	a4,1
   13e74:	0ae12623          	sw	a4,172(sp)
   13e78:	0000d797          	auipc	a5,0xd
   13e7c:	ce478793          	addi	a5,a5,-796 # 20b5c <_exit+0x1ac>
   13e80:	06100713          	li	a4,97
   13e84:	00f12c23          	sw	a5,24(sp)
   13e88:	00e89863          	bne	a7,a4,13e98 <_vfprintf_r+0x2158>
   13e8c:	0000d797          	auipc	a5,0xd
   13e90:	cbc78793          	addi	a5,a5,-836 # 20b48 <_exit+0x198>
   13e94:	00f12c23          	sw	a5,24(sp)
   13e98:	0000d717          	auipc	a4,0xd
   13e9c:	02870713          	addi	a4,a4,40 # 20ec0 <blanks.1+0x24>
   13ea0:	00072783          	lw	a5,0(a4)
   13ea4:	03512e23          	sw	s5,60(sp)
   13ea8:	05712823          	sw	s7,80(sp)
   13eac:	00f12e23          	sw	a5,28(sp)
   13eb0:	00472783          	lw	a5,4(a4)
   13eb4:	05412a23          	sw	s4,84(sp)
   13eb8:	000d0a93          	mv	s5,s10
   13ebc:	02f12023          	sw	a5,32(sp)
   13ec0:	00872783          	lw	a5,8(a4)
   13ec4:	04912c23          	sw	s1,88(sp)
   13ec8:	05a12e23          	sw	s10,92(sp)
   13ecc:	02f12223          	sw	a5,36(sp)
   13ed0:	00c72783          	lw	a5,12(a4)
   13ed4:	000d8c13          	mv	s8,s11
   13ed8:	fffb0b13          	addi	s6,s6,-1
   13edc:	05112423          	sw	a7,72(sp)
   13ee0:	05912623          	sw	s9,76(sp)
   13ee4:	00078d13          	mv	s10,a5
   13ee8:	000e8a13          	mv	s4,t4
   13eec:	00080b93          	mv	s7,a6
   13ef0:	000f0d93          	mv	s11,t5
   13ef4:	00058493          	mv	s1,a1
   13ef8:	03c0006f          	j	13f34 <_vfprintf_r+0x21f4>
   13efc:	00048593          	mv	a1,s1
   13f00:	00090513          	mv	a0,s2
   13f04:	09b12823          	sw	s11,144(sp)
   13f08:	09412a23          	sw	s4,148(sp)
   13f0c:	09712c23          	sw	s7,152(sp)
   13f10:	09812e23          	sw	s8,156(sp)
   13f14:	08012023          	sw	zero,128(sp)
   13f18:	08012223          	sw	zero,132(sp)
   13f1c:	08012423          	sw	zero,136(sp)
   13f20:	08012623          	sw	zero,140(sp)
   13f24:	fffb0c93          	addi	s9,s6,-1
   13f28:	4e9090ef          	jal	1dc10 <__eqtf2>
   13f2c:	5e050863          	beqz	a0,1451c <_vfprintf_r+0x27dc>
   13f30:	000c8b13          	mv	s6,s9
   13f34:	01c12783          	lw	a5,28(sp)
   13f38:	07010613          	addi	a2,sp,112
   13f3c:	00048593          	mv	a1,s1
   13f40:	06f12823          	sw	a5,112(sp)
   13f44:	02012783          	lw	a5,32(sp)
   13f48:	00090513          	mv	a0,s2
   13f4c:	09b12023          	sw	s11,128(sp)
   13f50:	06f12a23          	sw	a5,116(sp)
   13f54:	02412783          	lw	a5,36(sp)
   13f58:	09412223          	sw	s4,132(sp)
   13f5c:	09712423          	sw	s7,136(sp)
   13f60:	06f12c23          	sw	a5,120(sp)
   13f64:	09812623          	sw	s8,140(sp)
   13f68:	07a12e23          	sw	s10,124(sp)
   13f6c:	7d1090ef          	jal	1df3c <__multf3>
   13f70:	00090513          	mv	a0,s2
   13f74:	4e80c0ef          	jal	2045c <__fixtfsi>
   13f78:	00050593          	mv	a1,a0
   13f7c:	00050c93          	mv	s9,a0
   13f80:	00090513          	mv	a0,s2
   13f84:	09012d83          	lw	s11,144(sp)
   13f88:	09412c03          	lw	s8,148(sp)
   13f8c:	09812b83          	lw	s7,152(sp)
   13f90:	09c12a03          	lw	s4,156(sp)
   13f94:	5c00c0ef          	jal	20554 <__floatsitf>
   13f98:	09012683          	lw	a3,144(sp)
   13f9c:	06010613          	addi	a2,sp,96
   13fa0:	07010593          	addi	a1,sp,112
   13fa4:	06d12023          	sw	a3,96(sp)
   13fa8:	09412683          	lw	a3,148(sp)
   13fac:	00048513          	mv	a0,s1
   13fb0:	07b12823          	sw	s11,112(sp)
   13fb4:	06d12223          	sw	a3,100(sp)
   13fb8:	09812683          	lw	a3,152(sp)
   13fbc:	07812a23          	sw	s8,116(sp)
   13fc0:	07712c23          	sw	s7,120(sp)
   13fc4:	06d12423          	sw	a3,104(sp)
   13fc8:	09c12683          	lw	a3,156(sp)
   13fcc:	07412e23          	sw	s4,124(sp)
   13fd0:	06d12623          	sw	a3,108(sp)
   13fd4:	76d0a0ef          	jal	1ef40 <__subtf3>
   13fd8:	01812783          	lw	a5,24(sp)
   13fdc:	000a8f93          	mv	t6,s5
   13fe0:	001a8a93          	addi	s5,s5,1
   13fe4:	019786b3          	add	a3,a5,s9
   13fe8:	0006c603          	lbu	a2,0(a3)
   13fec:	08012d83          	lw	s11,128(sp)
   13ff0:	08412a03          	lw	s4,132(sp)
   13ff4:	08812b83          	lw	s7,136(sp)
   13ff8:	08c12c03          	lw	s8,140(sp)
   13ffc:	fff00793          	li	a5,-1
   14000:	feca8fa3          	sb	a2,-1(s5)
   14004:	eefb1ce3          	bne	s6,a5,13efc <_vfprintf_r+0x21bc>
   14008:	0000d517          	auipc	a0,0xd
   1400c:	ec850513          	addi	a0,a0,-312 # 20ed0 <blanks.1+0x34>
   14010:	04812883          	lw	a7,72(sp)
   14014:	00452283          	lw	t0,4(a0)
   14018:	00852383          	lw	t2,8(a0)
   1401c:	00c52783          	lw	a5,12(a0)
   14020:	00052b03          	lw	s6,0(a0)
   14024:	000d8f13          	mv	t5,s11
   14028:	000a0e93          	mv	t4,s4
   1402c:	000b8813          	mv	a6,s7
   14030:	00048593          	mv	a1,s1
   14034:	000c0d93          	mv	s11,s8
   14038:	05c12d03          	lw	s10,92(sp)
   1403c:	05412a03          	lw	s4,84(sp)
   14040:	05012b83          	lw	s7,80(sp)
   14044:	05812483          	lw	s1,88(sp)
   14048:	03f12023          	sw	t6,32(sp)
   1404c:	01112e23          	sw	a7,28(sp)
   14050:	05912e23          	sw	s9,92(sp)
   14054:	000a8c13          	mv	s8,s5
   14058:	04c12c83          	lw	s9,76(sp)
   1405c:	03c12a83          	lw	s5,60(sp)
   14060:	09e12823          	sw	t5,144(sp)
   14064:	05e12c23          	sw	t5,88(sp)
   14068:	09d12a23          	sw	t4,148(sp)
   1406c:	05d12a23          	sw	t4,84(sp)
   14070:	09012c23          	sw	a6,152(sp)
   14074:	05012823          	sw	a6,80(sp)
   14078:	09b12e23          	sw	s11,156(sp)
   1407c:	09612023          	sw	s6,128(sp)
   14080:	08512223          	sw	t0,132(sp)
   14084:	04512623          	sw	t0,76(sp)
   14088:	08712423          	sw	t2,136(sp)
   1408c:	04712423          	sw	t2,72(sp)
   14090:	08f12623          	sw	a5,140(sp)
   14094:	02f12e23          	sw	a5,60(sp)
   14098:	02b12223          	sw	a1,36(sp)
   1409c:	00090513          	mv	a0,s2
   140a0:	43d090ef          	jal	1dcdc <__getf2>
   140a4:	01c12883          	lw	a7,28(sp)
   140a8:	02012f83          	lw	t6,32(sp)
   140ac:	02a04863          	bgtz	a0,140dc <_vfprintf_r+0x239c>
   140b0:	02412583          	lw	a1,36(sp)
   140b4:	00090513          	mv	a0,s2
   140b8:	03112023          	sw	a7,32(sp)
   140bc:	01f12e23          	sw	t6,28(sp)
   140c0:	351090ef          	jal	1dc10 <__eqtf2>
   140c4:	02012883          	lw	a7,32(sp)
   140c8:	04051e63          	bnez	a0,14124 <_vfprintf_r+0x23e4>
   140cc:	05c12703          	lw	a4,92(sp)
   140d0:	01c12f83          	lw	t6,28(sp)
   140d4:	00177693          	andi	a3,a4,1
   140d8:	04068663          	beqz	a3,14124 <_vfprintf_r+0x23e4>
   140dc:	01812783          	lw	a5,24(sp)
   140e0:	0bf12e23          	sw	t6,188(sp)
   140e4:	fffc4603          	lbu	a2,-1(s8)
   140e8:	00f7c583          	lbu	a1,15(a5)
   140ec:	000c0693          	mv	a3,s8
   140f0:	02b61063          	bne	a2,a1,14110 <_vfprintf_r+0x23d0>
   140f4:	03000513          	li	a0,48
   140f8:	fea68fa3          	sb	a0,-1(a3)
   140fc:	0bc12683          	lw	a3,188(sp)
   14100:	fff68793          	addi	a5,a3,-1
   14104:	0af12e23          	sw	a5,188(sp)
   14108:	fff6c603          	lbu	a2,-1(a3)
   1410c:	fec586e3          	beq	a1,a2,140f8 <_vfprintf_r+0x23b8>
   14110:	00160593          	addi	a1,a2,1
   14114:	03900513          	li	a0,57
   14118:	0ff5f593          	zext.b	a1,a1
   1411c:	04a60463          	beq	a2,a0,14164 <_vfprintf_r+0x2424>
   14120:	feb68fa3          	sb	a1,-1(a3)
   14124:	0ac12783          	lw	a5,172(sp)
   14128:	41ac0733          	sub	a4,s8,s10
   1412c:	00e12e23          	sw	a4,28(sp)
   14130:	fff78713          	addi	a4,a5,-1
   14134:	00f12c23          	sw	a5,24(sp)
   14138:	06100613          	li	a2,97
   1413c:	0ae12623          	sw	a4,172(sp)
   14140:	07000693          	li	a3,112
   14144:	00c88663          	beq	a7,a2,14150 <_vfprintf_r+0x2410>
   14148:	05000693          	li	a3,80
   1414c:	04100893          	li	a7,65
   14150:	00100613          	li	a2,1
   14154:	a44ff06f          	j	13398 <_vfprintf_r+0x1658>
   14158:	000b0693          	mv	a3,s6
   1415c:	00300613          	li	a2,3
   14160:	bb5ff06f          	j	13d14 <_vfprintf_r+0x1fd4>
   14164:	01812783          	lw	a5,24(sp)
   14168:	00a7c583          	lbu	a1,10(a5)
   1416c:	fb5ff06f          	j	14120 <_vfprintf_r+0x23e0>
   14170:	0a714703          	lbu	a4,167(sp)
   14174:	04812c83          	lw	s9,72(sp)
   14178:	00000b13          	li	s6,0
   1417c:	00070463          	beqz	a4,14184 <_vfprintf_r+0x2444>
   14180:	864fe06f          	j	121e4 <_vfprintf_r+0x4a4>
   14184:	dd5fd06f          	j	11f58 <_vfprintf_r+0x218>
   14188:	01c12783          	lw	a5,28(sp)
   1418c:	01812703          	lw	a4,24(sp)
   14190:	10f74263          	blt	a4,a5,14294 <_vfprintf_r+0x2554>
   14194:	01812783          	lw	a5,24(sp)
   14198:	001cf713          	andi	a4,s9,1
   1419c:	00078913          	mv	s2,a5
   141a0:	00070663          	beqz	a4,141ac <_vfprintf_r+0x246c>
   141a4:	02812703          	lw	a4,40(sp)
   141a8:	00e78933          	add	s2,a5,a4
   141ac:	400cfe13          	andi	t3,s9,1024
   141b0:	000e0663          	beqz	t3,141bc <_vfprintf_r+0x247c>
   141b4:	01812783          	lw	a5,24(sp)
   141b8:	2ef04263          	bgtz	a5,1449c <_vfprintf_r+0x275c>
   141bc:	fff94693          	not	a3,s2
   141c0:	41f6d693          	srai	a3,a3,0x1f
   141c4:	00d97db3          	and	s11,s2,a3
   141c8:	06700893          	li	a7,103
   141cc:	02012223          	sw	zero,36(sp)
   141d0:	02012023          	sw	zero,32(sp)
   141d4:	aa0ff06f          	j	13474 <_vfprintf_r+0x1734>
   141d8:	0c410613          	addi	a2,sp,196
   141dc:	00048593          	mv	a1,s1
   141e0:	00090513          	mv	a0,s2
   141e4:	648000ef          	jal	1482c <__sprint_r>
   141e8:	00050463          	beqz	a0,141f0 <_vfprintf_r+0x24b0>
   141ec:	9ddfe06f          	j	12bc8 <_vfprintf_r+0xe88>
   141f0:	000cc683          	lbu	a3,0(s9)
   141f4:	0cc12603          	lw	a2,204(sp)
   141f8:	00098593          	mv	a1,s3
   141fc:	01000713          	li	a4,16
   14200:	00700813          	li	a6,7
   14204:	00dd0d33          	add	s10,s10,a3
   14208:	f94ff06f          	j	1399c <_vfprintf_r+0x1c5c>
   1420c:	00900513          	li	a0,9
   14210:	b7256e63          	bltu	a0,s2,1358c <_vfprintf_r+0x184c>
   14214:	bf8ff06f          	j	1360c <_vfprintf_r+0x18cc>
   14218:	02d00793          	li	a5,45
   1421c:	0af103a3          	sb	a5,167(sp)
   14220:	02d00713          	li	a4,45
   14224:	d0cff06f          	j	13730 <_vfprintf_r+0x19f0>
   14228:	0a714703          	lbu	a4,167(sp)
   1422c:	01812a23          	sw	s8,20(sp)
   14230:	02012223          	sw	zero,36(sp)
   14234:	02012023          	sw	zero,32(sp)
   14238:	00012c23          	sw	zero,24(sp)
   1423c:	000b0d93          	mv	s11,s6
   14240:	000b0913          	mv	s2,s6
   14244:	00000b13          	li	s6,0
   14248:	00070463          	beqz	a4,14250 <_vfprintf_r+0x2510>
   1424c:	f99fd06f          	j	121e4 <_vfprintf_r+0x4a4>
   14250:	d09fd06f          	j	11f58 <_vfprintf_r+0x218>
   14254:	0ac12783          	lw	a5,172(sp)
   14258:	00f12c23          	sw	a5,24(sp)
   1425c:	00070793          	mv	a5,a4
   14260:	a89ff06f          	j	13ce8 <_vfprintf_r+0x1fa8>
   14264:	00812503          	lw	a0,8(sp)
   14268:	0c410613          	addi	a2,sp,196
   1426c:	00048593          	mv	a1,s1
   14270:	5bc000ef          	jal	1482c <__sprint_r>
   14274:	00050463          	beqz	a0,1427c <_vfprintf_r+0x253c>
   14278:	951fe06f          	j	12bc8 <_vfprintf_r+0xe88>
   1427c:	0ac12583          	lw	a1,172(sp)
   14280:	01c12783          	lw	a5,28(sp)
   14284:	0cc12603          	lw	a2,204(sp)
   14288:	00098a13          	mv	s4,s3
   1428c:	40b785b3          	sub	a1,a5,a1
   14290:	c0dfe06f          	j	12e9c <_vfprintf_r+0x115c>
   14294:	01c12783          	lw	a5,28(sp)
   14298:	02812703          	lw	a4,40(sp)
   1429c:	06700893          	li	a7,103
   142a0:	00e78933          	add	s2,a5,a4
   142a4:	01812783          	lw	a5,24(sp)
   142a8:	2af05a63          	blez	a5,1455c <_vfprintf_r+0x281c>
   142ac:	400cfe13          	andi	t3,s9,1024
   142b0:	1e0e1863          	bnez	t3,144a0 <_vfprintf_r+0x2760>
   142b4:	fff94693          	not	a3,s2
   142b8:	41f6d693          	srai	a3,a3,0x1f
   142bc:	00d97db3          	and	s11,s2,a3
   142c0:	f0dff06f          	j	141cc <_vfprintf_r+0x248c>
   142c4:	01012383          	lw	t2,16(sp)
   142c8:	000a0493          	mv	s1,s4
   142cc:	901fe06f          	j	12bcc <_vfprintf_r+0xe8c>
   142d0:	000c8e93          	mv	t4,s9
   142d4:	bc4fe06f          	j	12698 <_vfprintf_r+0x958>
   142d8:	ff000513          	li	a0,-16
   142dc:	40b00933          	neg	s2,a1
   142e0:	0000d817          	auipc	a6,0xd
   142e4:	bac80813          	addi	a6,a6,-1108 # 20e8c <zeroes.0>
   142e8:	12a5d063          	bge	a1,a0,14408 <_vfprintf_r+0x26c8>
   142ec:	01512c23          	sw	s5,24(sp)
   142f0:	01000b13          	li	s6,16
   142f4:	00700c13          	li	s8,7
   142f8:	00080a93          	mv	s5,a6
   142fc:	00c0006f          	j	14308 <_vfprintf_r+0x25c8>
   14300:	ff090913          	addi	s2,s2,-16
   14304:	0f2b5e63          	bge	s6,s2,14400 <_vfprintf_r+0x26c0>
   14308:	01060613          	addi	a2,a2,16
   1430c:	00170713          	addi	a4,a4,1
   14310:	015a2023          	sw	s5,0(s4)
   14314:	016a2223          	sw	s6,4(s4)
   14318:	0cc12623          	sw	a2,204(sp)
   1431c:	0ce12423          	sw	a4,200(sp)
   14320:	008a0a13          	addi	s4,s4,8
   14324:	fcec5ee3          	bge	s8,a4,14300 <_vfprintf_r+0x25c0>
   14328:	00812503          	lw	a0,8(sp)
   1432c:	0c410613          	addi	a2,sp,196
   14330:	00048593          	mv	a1,s1
   14334:	4f8000ef          	jal	1482c <__sprint_r>
   14338:	00050463          	beqz	a0,14340 <_vfprintf_r+0x2600>
   1433c:	88dfe06f          	j	12bc8 <_vfprintf_r+0xe88>
   14340:	0cc12603          	lw	a2,204(sp)
   14344:	0c812703          	lw	a4,200(sp)
   14348:	00098a13          	mv	s4,s3
   1434c:	fb5ff06f          	j	14300 <_vfprintf_r+0x25c0>
   14350:	fff00793          	li	a5,-1
   14354:	00f12623          	sw	a5,12(sp)
   14358:	d61fd06f          	j	120b8 <_vfprintf_r+0x378>
   1435c:	08010593          	addi	a1,sp,128
   14360:	00090513          	mv	a0,s2
   14364:	04e12c23          	sw	a4,88(sp)
   14368:	04c12a23          	sw	a2,84(sp)
   1436c:	05112823          	sw	a7,80(sp)
   14370:	04d12623          	sw	a3,76(sp)
   14374:	09f12823          	sw	t6,144(sp)
   14378:	03f12223          	sw	t6,36(sp)
   1437c:	09e12a23          	sw	t5,148(sp)
   14380:	03e12023          	sw	t5,32(sp)
   14384:	09d12c23          	sw	t4,152(sp)
   14388:	01d12e23          	sw	t4,28(sp)
   1438c:	00b12c23          	sw	a1,24(sp)
   14390:	09812e23          	sw	s8,156(sp)
   14394:	08012023          	sw	zero,128(sp)
   14398:	08012223          	sw	zero,132(sp)
   1439c:	08012423          	sw	zero,136(sp)
   143a0:	08012623          	sw	zero,140(sp)
   143a4:	06d090ef          	jal	1dc10 <__eqtf2>
   143a8:	01812583          	lw	a1,24(sp)
   143ac:	01c12e83          	lw	t4,28(sp)
   143b0:	02012f03          	lw	t5,32(sp)
   143b4:	02412f83          	lw	t6,36(sp)
   143b8:	04c12683          	lw	a3,76(sp)
   143bc:	05012883          	lw	a7,80(sp)
   143c0:	05412603          	lw	a2,84(sp)
   143c4:	05812703          	lw	a4,88(sp)
   143c8:	1c051063          	bnez	a0,14588 <_vfprintf_r+0x2848>
   143cc:	0ac12783          	lw	a5,172(sp)
   143d0:	00f70733          	add	a4,a4,a5
   143d4:	00f12c23          	sw	a5,24(sp)
   143d8:	41a707b3          	sub	a5,a4,s10
   143dc:	00f12e23          	sw	a5,28(sp)
   143e0:	01812783          	lw	a5,24(sp)
   143e4:	001cf713          	andi	a4,s9,1
   143e8:	01676733          	or	a4,a4,s6
   143ec:	1af05863          	blez	a5,1459c <_vfprintf_r+0x285c>
   143f0:	18071263          	bnez	a4,14574 <_vfprintf_r+0x2834>
   143f4:	01812903          	lw	s2,24(sp)
   143f8:	06600893          	li	a7,102
   143fc:	eb1ff06f          	j	142ac <_vfprintf_r+0x256c>
   14400:	000a8813          	mv	a6,s5
   14404:	01812a83          	lw	s5,24(sp)
   14408:	01260633          	add	a2,a2,s2
   1440c:	00170713          	addi	a4,a4,1
   14410:	010a2023          	sw	a6,0(s4)
   14414:	012a2223          	sw	s2,4(s4)
   14418:	0cc12623          	sw	a2,204(sp)
   1441c:	0ce12423          	sw	a4,200(sp)
   14420:	00700593          	li	a1,7
   14424:	a6e5de63          	bge	a1,a4,136a0 <_vfprintf_r+0x1960>
   14428:	00812503          	lw	a0,8(sp)
   1442c:	0c410613          	addi	a2,sp,196
   14430:	00048593          	mv	a1,s1
   14434:	3f8000ef          	jal	1482c <__sprint_r>
   14438:	00050463          	beqz	a0,14440 <_vfprintf_r+0x2700>
   1443c:	f8cfe06f          	j	12bc8 <_vfprintf_r+0xe88>
   14440:	0cc12603          	lw	a2,204(sp)
   14444:	0c812703          	lw	a4,200(sp)
   14448:	00098a13          	mv	s4,s3
   1444c:	b70ff06f          	j	137bc <_vfprintf_r+0x1a7c>
   14450:	0b610693          	addi	a3,sp,182
   14454:	00061863          	bnez	a2,14464 <_vfprintf_r+0x2724>
   14458:	03000693          	li	a3,48
   1445c:	0ad10b23          	sb	a3,182(sp)
   14460:	0b710693          	addi	a3,sp,183
   14464:	19010793          	addi	a5,sp,400
   14468:	40f68633          	sub	a2,a3,a5
   1446c:	03070713          	addi	a4,a4,48
   14470:	0dd60793          	addi	a5,a2,221
   14474:	00e68023          	sb	a4,0(a3)
   14478:	02f12e23          	sw	a5,60(sp)
   1447c:	fb5fe06f          	j	13430 <_vfprintf_r+0x16f0>
   14480:	001cf713          	andi	a4,s9,1
   14484:	00071463          	bnez	a4,1448c <_vfprintf_r+0x274c>
   14488:	fc9fe06f          	j	13450 <_vfprintf_r+0x1710>
   1448c:	fbdfe06f          	j	13448 <_vfprintf_r+0x1708>
   14490:	00012823          	sw	zero,16(sp)
   14494:	00600b13          	li	s6,6
   14498:	ea9fd06f          	j	12340 <_vfprintf_r+0x600>
   1449c:	06700893          	li	a7,103
   144a0:	03812603          	lw	a2,56(sp)
   144a4:	0ff00693          	li	a3,255
   144a8:	00064703          	lbu	a4,0(a2)
   144ac:	14d70a63          	beq	a4,a3,14600 <_vfprintf_r+0x28c0>
   144b0:	01812783          	lw	a5,24(sp)
   144b4:	00000513          	li	a0,0
   144b8:	00000593          	li	a1,0
   144bc:	00f75e63          	bge	a4,a5,144d8 <_vfprintf_r+0x2798>
   144c0:	40e787b3          	sub	a5,a5,a4
   144c4:	00164703          	lbu	a4,1(a2)
   144c8:	04070463          	beqz	a4,14510 <_vfprintf_r+0x27d0>
   144cc:	00158593          	addi	a1,a1,1
   144d0:	00160613          	addi	a2,a2,1
   144d4:	fed714e3          	bne	a4,a3,144bc <_vfprintf_r+0x277c>
   144d8:	02c12c23          	sw	a2,56(sp)
   144dc:	02b12023          	sw	a1,32(sp)
   144e0:	02a12223          	sw	a0,36(sp)
   144e4:	00f12c23          	sw	a5,24(sp)
   144e8:	02412783          	lw	a5,36(sp)
   144ec:	02012703          	lw	a4,32(sp)
   144f0:	00e78733          	add	a4,a5,a4
   144f4:	04412783          	lw	a5,68(sp)
   144f8:	02f70733          	mul	a4,a4,a5
   144fc:	01270933          	add	s2,a4,s2
   14500:	fff94693          	not	a3,s2
   14504:	41f6d693          	srai	a3,a3,0x1f
   14508:	00d97db3          	and	s11,s2,a3
   1450c:	f69fe06f          	j	13474 <_vfprintf_r+0x1734>
   14510:	00064703          	lbu	a4,0(a2)
   14514:	00150513          	addi	a0,a0,1
   14518:	fbdff06f          	j	144d4 <_vfprintf_r+0x2794>
   1451c:	000a8c13          	mv	s8,s5
   14520:	001b0693          	addi	a3,s6,1
   14524:	04812883          	lw	a7,72(sp)
   14528:	04c12c83          	lw	s9,76(sp)
   1452c:	05012b83          	lw	s7,80(sp)
   14530:	05412a03          	lw	s4,84(sp)
   14534:	03c12a83          	lw	s5,60(sp)
   14538:	05812483          	lw	s1,88(sp)
   1453c:	05c12d03          	lw	s10,92(sp)
   14540:	00dc06b3          	add	a3,s8,a3
   14544:	03000613          	li	a2,48
   14548:	bc0b4ee3          	bltz	s6,14124 <_vfprintf_r+0x23e4>
   1454c:	001c0c13          	addi	s8,s8,1
   14550:	fecc0fa3          	sb	a2,-1(s8)
   14554:	ff869ce3          	bne	a3,s8,1454c <_vfprintf_r+0x280c>
   14558:	bcdff06f          	j	14124 <_vfprintf_r+0x23e4>
   1455c:	40f90f33          	sub	t5,s2,a5
   14560:	001f0913          	addi	s2,t5,1
   14564:	fff94693          	not	a3,s2
   14568:	41f6d693          	srai	a3,a3,0x1f
   1456c:	00d97db3          	and	s11,s2,a3
   14570:	c5dff06f          	j	141cc <_vfprintf_r+0x248c>
   14574:	02812703          	lw	a4,40(sp)
   14578:	06600893          	li	a7,102
   1457c:	00eb0f33          	add	t5,s6,a4
   14580:	00ff0933          	add	s2,t5,a5
   14584:	d29ff06f          	j	142ac <_vfprintf_r+0x256c>
   14588:	00100513          	li	a0,1
   1458c:	40d506b3          	sub	a3,a0,a3
   14590:	0ad12623          	sw	a3,172(sp)
   14594:	00d70733          	add	a4,a4,a3
   14598:	ee4ff06f          	j	13c7c <_vfprintf_r+0x1f3c>
   1459c:	00071a63          	bnez	a4,145b0 <_vfprintf_r+0x2870>
   145a0:	00100d93          	li	s11,1
   145a4:	06600893          	li	a7,102
   145a8:	00100913          	li	s2,1
   145ac:	c21ff06f          	j	141cc <_vfprintf_r+0x248c>
   145b0:	02812783          	lw	a5,40(sp)
   145b4:	06600893          	li	a7,102
   145b8:	00178f13          	addi	t5,a5,1
   145bc:	016f0933          	add	s2,t5,s6
   145c0:	fff94693          	not	a3,s2
   145c4:	41f6d693          	srai	a3,a3,0x1f
   145c8:	00d97db3          	and	s11,s2,a3
   145cc:	c01ff06f          	j	141cc <_vfprintf_r+0x248c>
   145d0:	00200793          	li	a5,2
   145d4:	02f12e23          	sw	a5,60(sp)
   145d8:	e59fe06f          	j	13430 <_vfprintf_r+0x16f0>
   145dc:	01412783          	lw	a5,20(sp)
   145e0:	0007ab03          	lw	s6,0(a5)
   145e4:	00478793          	addi	a5,a5,4
   145e8:	000b5463          	bgez	s6,145f0 <_vfprintf_r+0x28b0>
   145ec:	fff00b13          	li	s6,-1
   145f0:	001ac883          	lbu	a7,1(s5)
   145f4:	00f12a23          	sw	a5,20(sp)
   145f8:	00068a93          	mv	s5,a3
   145fc:	8d5fd06f          	j	11ed0 <_vfprintf_r+0x190>
   14600:	02012223          	sw	zero,36(sp)
   14604:	02012023          	sw	zero,32(sp)
   14608:	ee1ff06f          	j	144e8 <_vfprintf_r+0x27a8>
   1460c:	04500613          	li	a2,69
   14610:	08010593          	addi	a1,sp,128
   14614:	e68ff06f          	j	13c7c <_vfprintf_r+0x1f3c>
   14618:	00c4d783          	lhu	a5,12(s1)
   1461c:	0407e793          	ori	a5,a5,64
   14620:	00f49623          	sh	a5,12(s1)
   14624:	a61fd06f          	j	12084 <_vfprintf_r+0x344>

00014628 <vfprintf>:
   14628:	00060693          	mv	a3,a2
   1462c:	00058613          	mv	a2,a1
   14630:	00050593          	mv	a1,a0
   14634:	08c1a503          	lw	a0,140(gp) # 2290c <_impure_ptr>
   14638:	f08fd06f          	j	11d40 <_vfprintf_r>

0001463c <__sbprintf>:
   1463c:	b8010113          	addi	sp,sp,-1152
   14640:	00c59783          	lh	a5,12(a1)
   14644:	00e5d703          	lhu	a4,14(a1)
   14648:	46812c23          	sw	s0,1144(sp)
   1464c:	00058413          	mv	s0,a1
   14650:	000105b7          	lui	a1,0x10
   14654:	ffd58593          	addi	a1,a1,-3 # fffd <exit-0xb7>
   14658:	06442e03          	lw	t3,100(s0)
   1465c:	01c42303          	lw	t1,28(s0)
   14660:	02442883          	lw	a7,36(s0)
   14664:	01071713          	slli	a4,a4,0x10
   14668:	00b7f7b3          	and	a5,a5,a1
   1466c:	00e7e7b3          	or	a5,a5,a4
   14670:	40000813          	li	a6,1024
   14674:	00f12a23          	sw	a5,20(sp)
   14678:	00810593          	addi	a1,sp,8
   1467c:	07010793          	addi	a5,sp,112
   14680:	46912a23          	sw	s1,1140(sp)
   14684:	47212823          	sw	s2,1136(sp)
   14688:	46112e23          	sw	ra,1148(sp)
   1468c:	00050913          	mv	s2,a0
   14690:	07c12623          	sw	t3,108(sp)
   14694:	02612223          	sw	t1,36(sp)
   14698:	03112623          	sw	a7,44(sp)
   1469c:	00f12423          	sw	a5,8(sp)
   146a0:	00f12c23          	sw	a5,24(sp)
   146a4:	01012823          	sw	a6,16(sp)
   146a8:	01012e23          	sw	a6,28(sp)
   146ac:	02012023          	sw	zero,32(sp)
   146b0:	e90fd0ef          	jal	11d40 <_vfprintf_r>
   146b4:	00050493          	mv	s1,a0
   146b8:	02055c63          	bgez	a0,146f0 <__sbprintf+0xb4>
   146bc:	01415783          	lhu	a5,20(sp)
   146c0:	0407f793          	andi	a5,a5,64
   146c4:	00078863          	beqz	a5,146d4 <__sbprintf+0x98>
   146c8:	00c45783          	lhu	a5,12(s0)
   146cc:	0407e793          	ori	a5,a5,64
   146d0:	00f41623          	sh	a5,12(s0)
   146d4:	47c12083          	lw	ra,1148(sp)
   146d8:	47812403          	lw	s0,1144(sp)
   146dc:	47012903          	lw	s2,1136(sp)
   146e0:	00048513          	mv	a0,s1
   146e4:	47412483          	lw	s1,1140(sp)
   146e8:	48010113          	addi	sp,sp,1152
   146ec:	00008067          	ret
   146f0:	00810593          	addi	a1,sp,8
   146f4:	00090513          	mv	a0,s2
   146f8:	0ed010ef          	jal	15fe4 <_fflush_r>
   146fc:	fc0500e3          	beqz	a0,146bc <__sbprintf+0x80>
   14700:	fff00493          	li	s1,-1
   14704:	fb9ff06f          	j	146bc <__sbprintf+0x80>

00014708 <__sprint_r.part.0>:
   14708:	0645a783          	lw	a5,100(a1)
   1470c:	fd010113          	addi	sp,sp,-48
   14710:	01612823          	sw	s6,16(sp)
   14714:	02112623          	sw	ra,44(sp)
   14718:	01279713          	slli	a4,a5,0x12
   1471c:	00060b13          	mv	s6,a2
   14720:	0e075863          	bgez	a4,14810 <__sprint_r.part.0+0x108>
   14724:	00862783          	lw	a5,8(a2)
   14728:	03212023          	sw	s2,32(sp)
   1472c:	01312e23          	sw	s3,28(sp)
   14730:	01512a23          	sw	s5,20(sp)
   14734:	01712623          	sw	s7,12(sp)
   14738:	00058913          	mv	s2,a1
   1473c:	00062b83          	lw	s7,0(a2)
   14740:	00050993          	mv	s3,a0
   14744:	fff00a93          	li	s5,-1
   14748:	0a078863          	beqz	a5,147f8 <__sprint_r.part.0+0xf0>
   1474c:	02812423          	sw	s0,40(sp)
   14750:	02912223          	sw	s1,36(sp)
   14754:	01412c23          	sw	s4,24(sp)
   14758:	01812423          	sw	s8,8(sp)
   1475c:	004bac03          	lw	s8,4(s7)
   14760:	000ba403          	lw	s0,0(s7)
   14764:	002c5a13          	srli	s4,s8,0x2
   14768:	060a0663          	beqz	s4,147d4 <__sprint_r.part.0+0xcc>
   1476c:	00000493          	li	s1,0
   14770:	00c0006f          	j	1477c <__sprint_r.part.0+0x74>
   14774:	00440413          	addi	s0,s0,4
   14778:	049a0c63          	beq	s4,s1,147d0 <__sprint_r.part.0+0xc8>
   1477c:	00042583          	lw	a1,0(s0)
   14780:	00090613          	mv	a2,s2
   14784:	00098513          	mv	a0,s3
   14788:	080020ef          	jal	16808 <_fputwc_r>
   1478c:	00148493          	addi	s1,s1,1
   14790:	ff5512e3          	bne	a0,s5,14774 <__sprint_r.part.0+0x6c>
   14794:	02812403          	lw	s0,40(sp)
   14798:	02412483          	lw	s1,36(sp)
   1479c:	02012903          	lw	s2,32(sp)
   147a0:	01c12983          	lw	s3,28(sp)
   147a4:	01812a03          	lw	s4,24(sp)
   147a8:	01412a83          	lw	s5,20(sp)
   147ac:	00c12b83          	lw	s7,12(sp)
   147b0:	00812c03          	lw	s8,8(sp)
   147b4:	fff00513          	li	a0,-1
   147b8:	02c12083          	lw	ra,44(sp)
   147bc:	000b2423          	sw	zero,8(s6)
   147c0:	000b2223          	sw	zero,4(s6)
   147c4:	01012b03          	lw	s6,16(sp)
   147c8:	03010113          	addi	sp,sp,48
   147cc:	00008067          	ret
   147d0:	008b2783          	lw	a5,8(s6)
   147d4:	ffcc7c13          	andi	s8,s8,-4
   147d8:	418787b3          	sub	a5,a5,s8
   147dc:	00fb2423          	sw	a5,8(s6)
   147e0:	008b8b93          	addi	s7,s7,8
   147e4:	f6079ce3          	bnez	a5,1475c <__sprint_r.part.0+0x54>
   147e8:	02812403          	lw	s0,40(sp)
   147ec:	02412483          	lw	s1,36(sp)
   147f0:	01812a03          	lw	s4,24(sp)
   147f4:	00812c03          	lw	s8,8(sp)
   147f8:	02012903          	lw	s2,32(sp)
   147fc:	01c12983          	lw	s3,28(sp)
   14800:	01412a83          	lw	s5,20(sp)
   14804:	00c12b83          	lw	s7,12(sp)
   14808:	00000513          	li	a0,0
   1480c:	fadff06f          	j	147b8 <__sprint_r.part.0+0xb0>
   14810:	0b5010ef          	jal	160c4 <__sfvwrite_r>
   14814:	02c12083          	lw	ra,44(sp)
   14818:	000b2423          	sw	zero,8(s6)
   1481c:	000b2223          	sw	zero,4(s6)
   14820:	01012b03          	lw	s6,16(sp)
   14824:	03010113          	addi	sp,sp,48
   14828:	00008067          	ret

0001482c <__sprint_r>:
   1482c:	00862703          	lw	a4,8(a2)
   14830:	00070463          	beqz	a4,14838 <__sprint_r+0xc>
   14834:	ed5ff06f          	j	14708 <__sprint_r.part.0>
   14838:	00062223          	sw	zero,4(a2)
   1483c:	00000513          	li	a0,0
   14840:	00008067          	ret

00014844 <_vfiprintf_r>:
   14844:	ed010113          	addi	sp,sp,-304
   14848:	11312e23          	sw	s3,284(sp)
   1484c:	11612823          	sw	s6,272(sp)
   14850:	11712623          	sw	s7,268(sp)
   14854:	11812423          	sw	s8,264(sp)
   14858:	12112623          	sw	ra,300(sp)
   1485c:	0fb12e23          	sw	s11,252(sp)
   14860:	00050c13          	mv	s8,a0
   14864:	00058b13          	mv	s6,a1
   14868:	00060993          	mv	s3,a2
   1486c:	00068b93          	mv	s7,a3
   14870:	00050863          	beqz	a0,14880 <_vfiprintf_r+0x3c>
   14874:	03452783          	lw	a5,52(a0)
   14878:	00079463          	bnez	a5,14880 <_vfiprintf_r+0x3c>
   1487c:	1e80106f          	j	15a64 <_vfiprintf_r+0x1220>
   14880:	00cb1783          	lh	a5,12(s6)
   14884:	01279713          	slli	a4,a5,0x12
   14888:	02074663          	bltz	a4,148b4 <_vfiprintf_r+0x70>
   1488c:	064b2703          	lw	a4,100(s6)
   14890:	00002637          	lui	a2,0x2
   14894:	ffffe6b7          	lui	a3,0xffffe
   14898:	00c7e7b3          	or	a5,a5,a2
   1489c:	fff68693          	addi	a3,a3,-1 # ffffdfff <__BSS_END__+0xfffdb2cf>
   148a0:	01079793          	slli	a5,a5,0x10
   148a4:	4107d793          	srai	a5,a5,0x10
   148a8:	00d77733          	and	a4,a4,a3
   148ac:	00fb1623          	sh	a5,12(s6)
   148b0:	06eb2223          	sw	a4,100(s6)
   148b4:	0087f713          	andi	a4,a5,8
   148b8:	12070e63          	beqz	a4,149f4 <_vfiprintf_r+0x1b0>
   148bc:	010b2703          	lw	a4,16(s6)
   148c0:	12070a63          	beqz	a4,149f4 <_vfiprintf_r+0x1b0>
   148c4:	01a7f793          	andi	a5,a5,26
   148c8:	00a00713          	li	a4,10
   148cc:	14e78663          	beq	a5,a4,14a18 <_vfiprintf_r+0x1d4>
   148d0:	11512a23          	sw	s5,276(sp)
   148d4:	00000d93          	li	s11,0
   148d8:	04c10a93          	addi	s5,sp,76
   148dc:	12812423          	sw	s0,296(sp)
   148e0:	11412c23          	sw	s4,280(sp)
   148e4:	11912223          	sw	s9,260(sp)
   148e8:	11a12023          	sw	s10,256(sp)
   148ec:	01812023          	sw	s8,0(sp)
   148f0:	12912223          	sw	s1,292(sp)
   148f4:	13212023          	sw	s2,288(sp)
   148f8:	05512023          	sw	s5,64(sp)
   148fc:	04012423          	sw	zero,72(sp)
   14900:	04012223          	sw	zero,68(sp)
   14904:	000a8413          	mv	s0,s5
   14908:	00012223          	sw	zero,4(sp)
   1490c:	00012a23          	sw	zero,20(sp)
   14910:	00012c23          	sw	zero,24(sp)
   14914:	00012e23          	sw	zero,28(sp)
   14918:	0000cd17          	auipc	s10,0xc
   1491c:	5f8d0d13          	addi	s10,s10,1528 # 20f10 <blanks.1+0x74>
   14920:	01000a13          	li	s4,16
   14924:	0000cc97          	auipc	s9,0xc
   14928:	758c8c93          	addi	s9,s9,1880 # 2107c <zeroes.0>
   1492c:	000d8c13          	mv	s8,s11
   14930:	000b8813          	mv	a6,s7
   14934:	0009c783          	lbu	a5,0(s3)
   14938:	32078863          	beqz	a5,14c68 <_vfiprintf_r+0x424>
   1493c:	00098493          	mv	s1,s3
   14940:	02500713          	li	a4,37
   14944:	3ce78863          	beq	a5,a4,14d14 <_vfiprintf_r+0x4d0>
   14948:	0014c783          	lbu	a5,1(s1)
   1494c:	00148493          	addi	s1,s1,1
   14950:	fe079ae3          	bnez	a5,14944 <_vfiprintf_r+0x100>
   14954:	41348933          	sub	s2,s1,s3
   14958:	31348863          	beq	s1,s3,14c68 <_vfiprintf_r+0x424>
   1495c:	04812703          	lw	a4,72(sp)
   14960:	04412783          	lw	a5,68(sp)
   14964:	01342023          	sw	s3,0(s0)
   14968:	00e90733          	add	a4,s2,a4
   1496c:	00178793          	addi	a5,a5,1
   14970:	01242223          	sw	s2,4(s0)
   14974:	04e12423          	sw	a4,72(sp)
   14978:	04f12223          	sw	a5,68(sp)
   1497c:	00700693          	li	a3,7
   14980:	00840413          	addi	s0,s0,8
   14984:	02f6d463          	bge	a3,a5,149ac <_vfiprintf_r+0x168>
   14988:	4e070ce3          	beqz	a4,15680 <_vfiprintf_r+0xe3c>
   1498c:	00012503          	lw	a0,0(sp)
   14990:	04010613          	addi	a2,sp,64
   14994:	000b0593          	mv	a1,s6
   14998:	01012423          	sw	a6,8(sp)
   1499c:	d6dff0ef          	jal	14708 <__sprint_r.part.0>
   149a0:	00812803          	lw	a6,8(sp)
   149a4:	0c051463          	bnez	a0,14a6c <_vfiprintf_r+0x228>
   149a8:	000a8413          	mv	s0,s5
   149ac:	0004c783          	lbu	a5,0(s1)
   149b0:	012c0c33          	add	s8,s8,s2
   149b4:	2a078a63          	beqz	a5,14c68 <_vfiprintf_r+0x424>
   149b8:	0014c703          	lbu	a4,1(s1)
   149bc:	00148993          	addi	s3,s1,1
   149c0:	02010da3          	sb	zero,59(sp)
   149c4:	fff00493          	li	s1,-1
   149c8:	00000b93          	li	s7,0
   149cc:	00000d93          	li	s11,0
   149d0:	05a00913          	li	s2,90
   149d4:	00198993          	addi	s3,s3,1
   149d8:	fe070793          	addi	a5,a4,-32
   149dc:	10f96c63          	bltu	s2,a5,14af4 <_vfiprintf_r+0x2b0>
   149e0:	00279793          	slli	a5,a5,0x2
   149e4:	01a787b3          	add	a5,a5,s10
   149e8:	0007a783          	lw	a5,0(a5)
   149ec:	01a787b3          	add	a5,a5,s10
   149f0:	00078067          	jr	a5
   149f4:	000b0593          	mv	a1,s6
   149f8:	000c0513          	mv	a0,s8
   149fc:	3d9010ef          	jal	165d4 <__swsetup_r>
   14a00:	00050463          	beqz	a0,14a08 <_vfiprintf_r+0x1c4>
   14a04:	16c0106f          	j	15b70 <_vfiprintf_r+0x132c>
   14a08:	00cb1783          	lh	a5,12(s6)
   14a0c:	00a00713          	li	a4,10
   14a10:	01a7f793          	andi	a5,a5,26
   14a14:	eae79ee3          	bne	a5,a4,148d0 <_vfiprintf_r+0x8c>
   14a18:	00eb1783          	lh	a5,14(s6)
   14a1c:	ea07cae3          	bltz	a5,148d0 <_vfiprintf_r+0x8c>
   14a20:	12c12083          	lw	ra,300(sp)
   14a24:	0fc12d83          	lw	s11,252(sp)
   14a28:	000b8693          	mv	a3,s7
   14a2c:	00098613          	mv	a2,s3
   14a30:	10c12b83          	lw	s7,268(sp)
   14a34:	11c12983          	lw	s3,284(sp)
   14a38:	000b0593          	mv	a1,s6
   14a3c:	000c0513          	mv	a0,s8
   14a40:	11012b03          	lw	s6,272(sp)
   14a44:	10812c03          	lw	s8,264(sp)
   14a48:	13010113          	addi	sp,sp,304
   14a4c:	16c0106f          	j	15bb8 <__sbprintf>
   14a50:	00012503          	lw	a0,0(sp)
   14a54:	04010613          	addi	a2,sp,64
   14a58:	000b0593          	mv	a1,s6
   14a5c:	01012423          	sw	a6,8(sp)
   14a60:	ca9ff0ef          	jal	14708 <__sprint_r.part.0>
   14a64:	00812803          	lw	a6,8(sp)
   14a68:	1e050863          	beqz	a0,14c58 <_vfiprintf_r+0x414>
   14a6c:	000c0d93          	mv	s11,s8
   14a70:	00cb5783          	lhu	a5,12(s6)
   14a74:	12812403          	lw	s0,296(sp)
   14a78:	12412483          	lw	s1,292(sp)
   14a7c:	0407f793          	andi	a5,a5,64
   14a80:	12012903          	lw	s2,288(sp)
   14a84:	11812a03          	lw	s4,280(sp)
   14a88:	11412a83          	lw	s5,276(sp)
   14a8c:	10412c83          	lw	s9,260(sp)
   14a90:	10012d03          	lw	s10,256(sp)
   14a94:	00078463          	beqz	a5,14a9c <_vfiprintf_r+0x258>
   14a98:	0d80106f          	j	15b70 <_vfiprintf_r+0x132c>
   14a9c:	12c12083          	lw	ra,300(sp)
   14aa0:	11c12983          	lw	s3,284(sp)
   14aa4:	11012b03          	lw	s6,272(sp)
   14aa8:	10c12b83          	lw	s7,268(sp)
   14aac:	10812c03          	lw	s8,264(sp)
   14ab0:	000d8513          	mv	a0,s11
   14ab4:	0fc12d83          	lw	s11,252(sp)
   14ab8:	13010113          	addi	sp,sp,304
   14abc:	00008067          	ret
   14ac0:	00000b93          	li	s7,0
   14ac4:	fd070793          	addi	a5,a4,-48
   14ac8:	00900613          	li	a2,9
   14acc:	0009c703          	lbu	a4,0(s3)
   14ad0:	002b9693          	slli	a3,s7,0x2
   14ad4:	01768bb3          	add	s7,a3,s7
   14ad8:	001b9b93          	slli	s7,s7,0x1
   14adc:	01778bb3          	add	s7,a5,s7
   14ae0:	fd070793          	addi	a5,a4,-48
   14ae4:	00198993          	addi	s3,s3,1
   14ae8:	fef672e3          	bgeu	a2,a5,14acc <_vfiprintf_r+0x288>
   14aec:	fe070793          	addi	a5,a4,-32
   14af0:	eef978e3          	bgeu	s2,a5,149e0 <_vfiprintf_r+0x19c>
   14af4:	16070a63          	beqz	a4,14c68 <_vfiprintf_r+0x424>
   14af8:	08e10623          	sb	a4,140(sp)
   14afc:	02010da3          	sb	zero,59(sp)
   14b00:	00100693          	li	a3,1
   14b04:	00100893          	li	a7,1
   14b08:	08c10913          	addi	s2,sp,140
   14b0c:	00000493          	li	s1,0
   14b10:	00000f13          	li	t5,0
   14b14:	04412603          	lw	a2,68(sp)
   14b18:	084dff93          	andi	t6,s11,132
   14b1c:	04812783          	lw	a5,72(sp)
   14b20:	00160593          	addi	a1,a2,1 # 2001 <exit-0xe0b3>
   14b24:	00058e13          	mv	t3,a1
   14b28:	000f9663          	bnez	t6,14b34 <_vfiprintf_r+0x2f0>
   14b2c:	40db8733          	sub	a4,s7,a3
   14b30:	1ee04ae3          	bgtz	a4,15524 <_vfiprintf_r+0xce0>
   14b34:	03b14703          	lbu	a4,59(sp)
   14b38:	02070a63          	beqz	a4,14b6c <_vfiprintf_r+0x328>
   14b3c:	03b10713          	addi	a4,sp,59
   14b40:	00178793          	addi	a5,a5,1
   14b44:	00e42023          	sw	a4,0(s0)
   14b48:	00100713          	li	a4,1
   14b4c:	00e42223          	sw	a4,4(s0)
   14b50:	04f12423          	sw	a5,72(sp)
   14b54:	05c12223          	sw	t3,68(sp)
   14b58:	00700713          	li	a4,7
   14b5c:	0fc748e3          	blt	a4,t3,1544c <_vfiprintf_r+0xc08>
   14b60:	000e0613          	mv	a2,t3
   14b64:	00840413          	addi	s0,s0,8
   14b68:	001e0e13          	addi	t3,t3,1
   14b6c:	060f0863          	beqz	t5,14bdc <_vfiprintf_r+0x398>
   14b70:	03c10713          	addi	a4,sp,60
   14b74:	00278793          	addi	a5,a5,2
   14b78:	00e42023          	sw	a4,0(s0)
   14b7c:	00200713          	li	a4,2
   14b80:	00e42223          	sw	a4,4(s0)
   14b84:	04f12423          	sw	a5,72(sp)
   14b88:	05c12223          	sw	t3,68(sp)
   14b8c:	00700713          	li	a4,7
   14b90:	13c756e3          	bge	a4,t3,154bc <_vfiprintf_r+0xc78>
   14b94:	34078ce3          	beqz	a5,156ec <_vfiprintf_r+0xea8>
   14b98:	00012503          	lw	a0,0(sp)
   14b9c:	04010613          	addi	a2,sp,64
   14ba0:	000b0593          	mv	a1,s6
   14ba4:	03012023          	sw	a6,32(sp)
   14ba8:	00d12823          	sw	a3,16(sp)
   14bac:	01112623          	sw	a7,12(sp)
   14bb0:	01f12423          	sw	t6,8(sp)
   14bb4:	b55ff0ef          	jal	14708 <__sprint_r.part.0>
   14bb8:	ea051ae3          	bnez	a0,14a6c <_vfiprintf_r+0x228>
   14bbc:	04412603          	lw	a2,68(sp)
   14bc0:	04812783          	lw	a5,72(sp)
   14bc4:	02012803          	lw	a6,32(sp)
   14bc8:	01012683          	lw	a3,16(sp)
   14bcc:	00c12883          	lw	a7,12(sp)
   14bd0:	00812f83          	lw	t6,8(sp)
   14bd4:	000a8413          	mv	s0,s5
   14bd8:	00160e13          	addi	t3,a2,1
   14bdc:	08000713          	li	a4,128
   14be0:	64ef8a63          	beq	t6,a4,15234 <_vfiprintf_r+0x9f0>
   14be4:	411484b3          	sub	s1,s1,a7
   14be8:	76904a63          	bgtz	s1,1535c <_vfiprintf_r+0xb18>
   14bec:	00f887b3          	add	a5,a7,a5
   14bf0:	01242023          	sw	s2,0(s0)
   14bf4:	01142223          	sw	a7,4(s0)
   14bf8:	04f12423          	sw	a5,72(sp)
   14bfc:	05c12223          	sw	t3,68(sp)
   14c00:	00700713          	li	a4,7
   14c04:	61c75c63          	bge	a4,t3,1521c <_vfiprintf_r+0x9d8>
   14c08:	10078e63          	beqz	a5,14d24 <_vfiprintf_r+0x4e0>
   14c0c:	00012503          	lw	a0,0(sp)
   14c10:	04010613          	addi	a2,sp,64
   14c14:	000b0593          	mv	a1,s6
   14c18:	01012623          	sw	a6,12(sp)
   14c1c:	00d12423          	sw	a3,8(sp)
   14c20:	ae9ff0ef          	jal	14708 <__sprint_r.part.0>
   14c24:	e40514e3          	bnez	a0,14a6c <_vfiprintf_r+0x228>
   14c28:	04812783          	lw	a5,72(sp)
   14c2c:	00c12803          	lw	a6,12(sp)
   14c30:	00812683          	lw	a3,8(sp)
   14c34:	000a8413          	mv	s0,s5
   14c38:	004dfd93          	andi	s11,s11,4
   14c3c:	000d8663          	beqz	s11,14c48 <_vfiprintf_r+0x404>
   14c40:	40db84b3          	sub	s1,s7,a3
   14c44:	0e904c63          	bgtz	s1,14d3c <_vfiprintf_r+0x4f8>
   14c48:	00dbd463          	bge	s7,a3,14c50 <_vfiprintf_r+0x40c>
   14c4c:	00068b93          	mv	s7,a3
   14c50:	017c0c33          	add	s8,s8,s7
   14c54:	de079ee3          	bnez	a5,14a50 <_vfiprintf_r+0x20c>
   14c58:	0009c783          	lbu	a5,0(s3)
   14c5c:	04012223          	sw	zero,68(sp)
   14c60:	000a8413          	mv	s0,s5
   14c64:	cc079ce3          	bnez	a5,1493c <_vfiprintf_r+0xf8>
   14c68:	04812783          	lw	a5,72(sp)
   14c6c:	000c0d93          	mv	s11,s8
   14c70:	00012c03          	lw	s8,0(sp)
   14c74:	de078ee3          	beqz	a5,14a70 <_vfiprintf_r+0x22c>
   14c78:	04010613          	addi	a2,sp,64
   14c7c:	000b0593          	mv	a1,s6
   14c80:	000c0513          	mv	a0,s8
   14c84:	a85ff0ef          	jal	14708 <__sprint_r.part.0>
   14c88:	de9ff06f          	j	14a70 <_vfiprintf_r+0x22c>
   14c8c:	00082b83          	lw	s7,0(a6)
   14c90:	00480813          	addi	a6,a6,4
   14c94:	2a0bc663          	bltz	s7,14f40 <_vfiprintf_r+0x6fc>
   14c98:	0009c703          	lbu	a4,0(s3)
   14c9c:	d39ff06f          	j	149d4 <_vfiprintf_r+0x190>
   14ca0:	0009c703          	lbu	a4,0(s3)
   14ca4:	020ded93          	ori	s11,s11,32
   14ca8:	d2dff06f          	j	149d4 <_vfiprintf_r+0x190>
   14cac:	010ded93          	ori	s11,s11,16
   14cb0:	020df793          	andi	a5,s11,32
   14cb4:	16078e63          	beqz	a5,14e30 <_vfiprintf_r+0x5ec>
   14cb8:	00780813          	addi	a6,a6,7
   14cbc:	ff887813          	andi	a6,a6,-8
   14cc0:	00482703          	lw	a4,4(a6)
   14cc4:	00082783          	lw	a5,0(a6)
   14cc8:	00880813          	addi	a6,a6,8
   14ccc:	00070893          	mv	a7,a4
   14cd0:	18074663          	bltz	a4,14e5c <_vfiprintf_r+0x618>
   14cd4:	1a04c463          	bltz	s1,14e7c <_vfiprintf_r+0x638>
   14cd8:	0117e733          	or	a4,a5,a7
   14cdc:	f7fdfd93          	andi	s11,s11,-129
   14ce0:	18071e63          	bnez	a4,14e7c <_vfiprintf_r+0x638>
   14ce4:	660492e3          	bnez	s1,15b48 <_vfiprintf_r+0x1304>
   14ce8:	03b14783          	lbu	a5,59(sp)
   14cec:	00000693          	li	a3,0
   14cf0:	00000893          	li	a7,0
   14cf4:	0f010913          	addi	s2,sp,240
   14cf8:	00078463          	beqz	a5,14d00 <_vfiprintf_r+0x4bc>
   14cfc:	00168693          	addi	a3,a3,1
   14d00:	002dff13          	andi	t5,s11,2
   14d04:	e00f08e3          	beqz	t5,14b14 <_vfiprintf_r+0x2d0>
   14d08:	00268693          	addi	a3,a3,2
   14d0c:	00200f13          	li	t5,2
   14d10:	e05ff06f          	j	14b14 <_vfiprintf_r+0x2d0>
   14d14:	41348933          	sub	s2,s1,s3
   14d18:	c53492e3          	bne	s1,s3,1495c <_vfiprintf_r+0x118>
   14d1c:	0004c783          	lbu	a5,0(s1)
   14d20:	c95ff06f          	j	149b4 <_vfiprintf_r+0x170>
   14d24:	04012223          	sw	zero,68(sp)
   14d28:	004dfd93          	andi	s11,s11,4
   14d2c:	100d80e3          	beqz	s11,1562c <_vfiprintf_r+0xde8>
   14d30:	40db84b3          	sub	s1,s7,a3
   14d34:	0e905ce3          	blez	s1,1562c <_vfiprintf_r+0xde8>
   14d38:	000a8413          	mv	s0,s5
   14d3c:	01000713          	li	a4,16
   14d40:	04412603          	lw	a2,68(sp)
   14d44:	60975ee3          	bge	a4,s1,15b60 <_vfiprintf_r+0x131c>
   14d48:	0000ce17          	auipc	t3,0xc
   14d4c:	344e0e13          	addi	t3,t3,836 # 2108c <blanks.1>
   14d50:	00d12423          	sw	a3,8(sp)
   14d54:	01000913          	li	s2,16
   14d58:	00040693          	mv	a3,s0
   14d5c:	00700d93          	li	s11,7
   14d60:	00048413          	mv	s0,s1
   14d64:	01012623          	sw	a6,12(sp)
   14d68:	000e0493          	mv	s1,t3
   14d6c:	0180006f          	j	14d84 <_vfiprintf_r+0x540>
   14d70:	00260593          	addi	a1,a2,2
   14d74:	00868693          	addi	a3,a3,8
   14d78:	00070613          	mv	a2,a4
   14d7c:	ff040413          	addi	s0,s0,-16
   14d80:	04895863          	bge	s2,s0,14dd0 <_vfiprintf_r+0x58c>
   14d84:	01078793          	addi	a5,a5,16
   14d88:	00160713          	addi	a4,a2,1
   14d8c:	0096a023          	sw	s1,0(a3)
   14d90:	0126a223          	sw	s2,4(a3)
   14d94:	04f12423          	sw	a5,72(sp)
   14d98:	04e12223          	sw	a4,68(sp)
   14d9c:	fceddae3          	bge	s11,a4,14d70 <_vfiprintf_r+0x52c>
   14da0:	48078263          	beqz	a5,15224 <_vfiprintf_r+0x9e0>
   14da4:	00012503          	lw	a0,0(sp)
   14da8:	04010613          	addi	a2,sp,64
   14dac:	000b0593          	mv	a1,s6
   14db0:	959ff0ef          	jal	14708 <__sprint_r.part.0>
   14db4:	ca051ce3          	bnez	a0,14a6c <_vfiprintf_r+0x228>
   14db8:	04412603          	lw	a2,68(sp)
   14dbc:	ff040413          	addi	s0,s0,-16
   14dc0:	04812783          	lw	a5,72(sp)
   14dc4:	000a8693          	mv	a3,s5
   14dc8:	00160593          	addi	a1,a2,1
   14dcc:	fa894ce3          	blt	s2,s0,14d84 <_vfiprintf_r+0x540>
   14dd0:	00048e13          	mv	t3,s1
   14dd4:	00c12803          	lw	a6,12(sp)
   14dd8:	00040493          	mv	s1,s0
   14ddc:	00068413          	mv	s0,a3
   14de0:	00812683          	lw	a3,8(sp)
   14de4:	009787b3          	add	a5,a5,s1
   14de8:	01c42023          	sw	t3,0(s0)
   14dec:	00942223          	sw	s1,4(s0)
   14df0:	04f12423          	sw	a5,72(sp)
   14df4:	04b12223          	sw	a1,68(sp)
   14df8:	00700713          	li	a4,7
   14dfc:	e4b756e3          	bge	a4,a1,14c48 <_vfiprintf_r+0x404>
   14e00:	020786e3          	beqz	a5,1562c <_vfiprintf_r+0xde8>
   14e04:	00012503          	lw	a0,0(sp)
   14e08:	04010613          	addi	a2,sp,64
   14e0c:	000b0593          	mv	a1,s6
   14e10:	01012623          	sw	a6,12(sp)
   14e14:	00d12423          	sw	a3,8(sp)
   14e18:	8f1ff0ef          	jal	14708 <__sprint_r.part.0>
   14e1c:	c40518e3          	bnez	a0,14a6c <_vfiprintf_r+0x228>
   14e20:	04812783          	lw	a5,72(sp)
   14e24:	00c12803          	lw	a6,12(sp)
   14e28:	00812683          	lw	a3,8(sp)
   14e2c:	e1dff06f          	j	14c48 <_vfiprintf_r+0x404>
   14e30:	010df713          	andi	a4,s11,16
   14e34:	00082783          	lw	a5,0(a6)
   14e38:	00480813          	addi	a6,a6,4
   14e3c:	0e071c63          	bnez	a4,14f34 <_vfiprintf_r+0x6f0>
   14e40:	040df713          	andi	a4,s11,64
   14e44:	0e070463          	beqz	a4,14f2c <_vfiprintf_r+0x6e8>
   14e48:	01079793          	slli	a5,a5,0x10
   14e4c:	4107d793          	srai	a5,a5,0x10
   14e50:	41f7d893          	srai	a7,a5,0x1f
   14e54:	00088713          	mv	a4,a7
   14e58:	e6075ee3          	bgez	a4,14cd4 <_vfiprintf_r+0x490>
   14e5c:	02d00693          	li	a3,45
   14e60:	00f03733          	snez	a4,a5
   14e64:	411008b3          	neg	a7,a7
   14e68:	02d10da3          	sb	a3,59(sp)
   14e6c:	40e888b3          	sub	a7,a7,a4
   14e70:	40f007b3          	neg	a5,a5
   14e74:	0004c463          	bltz	s1,14e7c <_vfiprintf_r+0x638>
   14e78:	f7fdfd93          	andi	s11,s11,-129
   14e7c:	0c089ae3          	bnez	a7,15750 <_vfiprintf_r+0xf0c>
   14e80:	00900713          	li	a4,9
   14e84:	0cf766e3          	bltu	a4,a5,15750 <_vfiprintf_r+0xf0c>
   14e88:	03078793          	addi	a5,a5,48
   14e8c:	0ff7f793          	zext.b	a5,a5
   14e90:	0ef107a3          	sb	a5,239(sp)
   14e94:	00048693          	mv	a3,s1
   14e98:	00904463          	bgtz	s1,14ea0 <_vfiprintf_r+0x65c>
   14e9c:	00100693          	li	a3,1
   14ea0:	00100893          	li	a7,1
   14ea4:	0ef10913          	addi	s2,sp,239
   14ea8:	03b14783          	lbu	a5,59(sp)
   14eac:	e40798e3          	bnez	a5,14cfc <_vfiprintf_r+0x4b8>
   14eb0:	e51ff06f          	j	14d00 <_vfiprintf_r+0x4bc>
   14eb4:	00082903          	lw	s2,0(a6)
   14eb8:	02010da3          	sb	zero,59(sp)
   14ebc:	00480813          	addi	a6,a6,4
   14ec0:	3c090ee3          	beqz	s2,15a9c <_vfiprintf_r+0x1258>
   14ec4:	01012423          	sw	a6,8(sp)
   14ec8:	2604cee3          	bltz	s1,15944 <_vfiprintf_r+0x1100>
   14ecc:	00048613          	mv	a2,s1
   14ed0:	00000593          	li	a1,0
   14ed4:	00090513          	mv	a0,s2
   14ed8:	1d9010ef          	jal	168b0 <memchr>
   14edc:	00812803          	lw	a6,8(sp)
   14ee0:	00048893          	mv	a7,s1
   14ee4:	00050463          	beqz	a0,14eec <_vfiprintf_r+0x6a8>
   14ee8:	412508b3          	sub	a7,a0,s2
   14eec:	03b14783          	lbu	a5,59(sp)
   14ef0:	fff8c693          	not	a3,a7
   14ef4:	41f6d693          	srai	a3,a3,0x1f
   14ef8:	00d8f6b3          	and	a3,a7,a3
   14efc:	00000493          	li	s1,0
   14f00:	00000f13          	li	t5,0
   14f04:	de079ce3          	bnez	a5,14cfc <_vfiprintf_r+0x4b8>
   14f08:	c0dff06f          	j	14b14 <_vfiprintf_r+0x2d0>
   14f0c:	00082783          	lw	a5,0(a6)
   14f10:	02010da3          	sb	zero,59(sp)
   14f14:	00480813          	addi	a6,a6,4
   14f18:	08f10623          	sb	a5,140(sp)
   14f1c:	00100693          	li	a3,1
   14f20:	00100893          	li	a7,1
   14f24:	08c10913          	addi	s2,sp,140
   14f28:	be5ff06f          	j	14b0c <_vfiprintf_r+0x2c8>
   14f2c:	200df713          	andi	a4,s11,512
   14f30:	3e0716e3          	bnez	a4,15b1c <_vfiprintf_r+0x12d8>
   14f34:	41f7d893          	srai	a7,a5,0x1f
   14f38:	00088713          	mv	a4,a7
   14f3c:	d95ff06f          	j	14cd0 <_vfiprintf_r+0x48c>
   14f40:	41700bb3          	neg	s7,s7
   14f44:	0009c703          	lbu	a4,0(s3)
   14f48:	004ded93          	ori	s11,s11,4
   14f4c:	a89ff06f          	j	149d4 <_vfiprintf_r+0x190>
   14f50:	02b00793          	li	a5,43
   14f54:	0009c703          	lbu	a4,0(s3)
   14f58:	02f10da3          	sb	a5,59(sp)
   14f5c:	a79ff06f          	j	149d4 <_vfiprintf_r+0x190>
   14f60:	0009c703          	lbu	a4,0(s3)
   14f64:	080ded93          	ori	s11,s11,128
   14f68:	a6dff06f          	j	149d4 <_vfiprintf_r+0x190>
   14f6c:	0009c703          	lbu	a4,0(s3)
   14f70:	02a00793          	li	a5,42
   14f74:	00198613          	addi	a2,s3,1
   14f78:	40f708e3          	beq	a4,a5,15b88 <_vfiprintf_r+0x1344>
   14f7c:	fd070793          	addi	a5,a4,-48
   14f80:	00900693          	li	a3,9
   14f84:	00000493          	li	s1,0
   14f88:	00900593          	li	a1,9
   14f8c:	02f6e463          	bltu	a3,a5,14fb4 <_vfiprintf_r+0x770>
   14f90:	00064703          	lbu	a4,0(a2)
   14f94:	00249693          	slli	a3,s1,0x2
   14f98:	009684b3          	add	s1,a3,s1
   14f9c:	00149493          	slli	s1,s1,0x1
   14fa0:	00f484b3          	add	s1,s1,a5
   14fa4:	fd070793          	addi	a5,a4,-48
   14fa8:	00160613          	addi	a2,a2,1
   14fac:	fef5f2e3          	bgeu	a1,a5,14f90 <_vfiprintf_r+0x74c>
   14fb0:	0e04c6e3          	bltz	s1,1589c <_vfiprintf_r+0x1058>
   14fb4:	00060993          	mv	s3,a2
   14fb8:	a21ff06f          	j	149d8 <_vfiprintf_r+0x194>
   14fbc:	00012503          	lw	a0,0(sp)
   14fc0:	01012423          	sw	a6,8(sp)
   14fc4:	365010ef          	jal	16b28 <_localeconv_r>
   14fc8:	00452783          	lw	a5,4(a0)
   14fcc:	00078513          	mv	a0,a5
   14fd0:	00f12e23          	sw	a5,28(sp)
   14fd4:	f89fb0ef          	jal	10f5c <strlen>
   14fd8:	00050793          	mv	a5,a0
   14fdc:	00012503          	lw	a0,0(sp)
   14fe0:	00f12c23          	sw	a5,24(sp)
   14fe4:	345010ef          	jal	16b28 <_localeconv_r>
   14fe8:	00852703          	lw	a4,8(a0)
   14fec:	01812783          	lw	a5,24(sp)
   14ff0:	00812803          	lw	a6,8(sp)
   14ff4:	00e12a23          	sw	a4,20(sp)
   14ff8:	ca0780e3          	beqz	a5,14c98 <_vfiprintf_r+0x454>
   14ffc:	01412783          	lw	a5,20(sp)
   15000:	0009c703          	lbu	a4,0(s3)
   15004:	9c0788e3          	beqz	a5,149d4 <_vfiprintf_r+0x190>
   15008:	0007c783          	lbu	a5,0(a5)
   1500c:	9c0784e3          	beqz	a5,149d4 <_vfiprintf_r+0x190>
   15010:	400ded93          	ori	s11,s11,1024
   15014:	9c1ff06f          	j	149d4 <_vfiprintf_r+0x190>
   15018:	0009c703          	lbu	a4,0(s3)
   1501c:	001ded93          	ori	s11,s11,1
   15020:	9b5ff06f          	j	149d4 <_vfiprintf_r+0x190>
   15024:	03b14783          	lbu	a5,59(sp)
   15028:	0009c703          	lbu	a4,0(s3)
   1502c:	9a0794e3          	bnez	a5,149d4 <_vfiprintf_r+0x190>
   15030:	02000793          	li	a5,32
   15034:	02f10da3          	sb	a5,59(sp)
   15038:	99dff06f          	j	149d4 <_vfiprintf_r+0x190>
   1503c:	010de713          	ori	a4,s11,16
   15040:	02077793          	andi	a5,a4,32
   15044:	66078863          	beqz	a5,156b4 <_vfiprintf_r+0xe70>
   15048:	00780813          	addi	a6,a6,7
   1504c:	ff887813          	andi	a6,a6,-8
   15050:	00082783          	lw	a5,0(a6)
   15054:	00482603          	lw	a2,4(a6)
   15058:	00880813          	addi	a6,a6,8
   1505c:	02010da3          	sb	zero,59(sp)
   15060:	bff77d93          	andi	s11,a4,-1025
   15064:	0c04c063          	bltz	s1,15124 <_vfiprintf_r+0x8e0>
   15068:	00c7e6b3          	or	a3,a5,a2
   1506c:	b7f77713          	andi	a4,a4,-1153
   15070:	1e0692e3          	bnez	a3,15a54 <_vfiprintf_r+0x1210>
   15074:	000d8693          	mv	a3,s11
   15078:	00000793          	li	a5,0
   1507c:	00070d93          	mv	s11,a4
   15080:	08049663          	bnez	s1,1510c <_vfiprintf_r+0x8c8>
   15084:	c60792e3          	bnez	a5,14ce8 <_vfiprintf_r+0x4a4>
   15088:	0016f893          	andi	a7,a3,1
   1508c:	7c088063          	beqz	a7,1584c <_vfiprintf_r+0x1008>
   15090:	03000793          	li	a5,48
   15094:	0ef107a3          	sb	a5,239(sp)
   15098:	00088693          	mv	a3,a7
   1509c:	0ef10913          	addi	s2,sp,239
   150a0:	e09ff06f          	j	14ea8 <_vfiprintf_r+0x664>
   150a4:	0009c703          	lbu	a4,0(s3)
   150a8:	06c00793          	li	a5,108
   150ac:	1cf708e3          	beq	a4,a5,15a7c <_vfiprintf_r+0x1238>
   150b0:	010ded93          	ori	s11,s11,16
   150b4:	921ff06f          	j	149d4 <_vfiprintf_r+0x190>
   150b8:	0009c703          	lbu	a4,0(s3)
   150bc:	06800793          	li	a5,104
   150c0:	1af706e3          	beq	a4,a5,15a6c <_vfiprintf_r+0x1228>
   150c4:	040ded93          	ori	s11,s11,64
   150c8:	90dff06f          	j	149d4 <_vfiprintf_r+0x190>
   150cc:	010de693          	ori	a3,s11,16
   150d0:	0206f793          	andi	a5,a3,32
   150d4:	5a078c63          	beqz	a5,1568c <_vfiprintf_r+0xe48>
   150d8:	00780813          	addi	a6,a6,7
   150dc:	ff887813          	andi	a6,a6,-8
   150e0:	00082783          	lw	a5,0(a6)
   150e4:	00482883          	lw	a7,4(a6)
   150e8:	00880813          	addi	a6,a6,8
   150ec:	02010da3          	sb	zero,59(sp)
   150f0:	00068d93          	mv	s11,a3
   150f4:	d804c4e3          	bltz	s1,14e7c <_vfiprintf_r+0x638>
   150f8:	0117e733          	or	a4,a5,a7
   150fc:	f7f6fd93          	andi	s11,a3,-129
   15100:	d6071ee3          	bnez	a4,14e7c <_vfiprintf_r+0x638>
   15104:	00100793          	li	a5,1
   15108:	f6048ee3          	beqz	s1,15084 <_vfiprintf_r+0x840>
   1510c:	00100713          	li	a4,1
   15110:	22e78ce3          	beq	a5,a4,15b48 <_vfiprintf_r+0x1304>
   15114:	00200713          	li	a4,2
   15118:	1ae78ae3          	beq	a5,a4,15acc <_vfiprintf_r+0x1288>
   1511c:	00000793          	li	a5,0
   15120:	00000613          	li	a2,0
   15124:	0f010913          	addi	s2,sp,240
   15128:	01d61693          	slli	a3,a2,0x1d
   1512c:	0077f713          	andi	a4,a5,7
   15130:	0037d793          	srli	a5,a5,0x3
   15134:	03070713          	addi	a4,a4,48
   15138:	00f6e7b3          	or	a5,a3,a5
   1513c:	00365613          	srli	a2,a2,0x3
   15140:	fee90fa3          	sb	a4,-1(s2)
   15144:	00c7e6b3          	or	a3,a5,a2
   15148:	00090593          	mv	a1,s2
   1514c:	fff90913          	addi	s2,s2,-1
   15150:	fc069ce3          	bnez	a3,15128 <_vfiprintf_r+0x8e4>
   15154:	001df793          	andi	a5,s11,1
   15158:	3a078a63          	beqz	a5,1550c <_vfiprintf_r+0xcc8>
   1515c:	03000793          	li	a5,48
   15160:	3af70663          	beq	a4,a5,1550c <_vfiprintf_r+0xcc8>
   15164:	ffe58593          	addi	a1,a1,-2
   15168:	fef90fa3          	sb	a5,-1(s2)
   1516c:	0f010793          	addi	a5,sp,240
   15170:	40b788b3          	sub	a7,a5,a1
   15174:	00048693          	mv	a3,s1
   15178:	7114cc63          	blt	s1,a7,15890 <_vfiprintf_r+0x104c>
   1517c:	00058913          	mv	s2,a1
   15180:	d29ff06f          	j	14ea8 <_vfiprintf_r+0x664>
   15184:	00008737          	lui	a4,0x8
   15188:	83070713          	addi	a4,a4,-2000 # 7830 <exit-0x8884>
   1518c:	02e11e23          	sh	a4,60(sp)
   15190:	0000c717          	auipc	a4,0xc
   15194:	9b870713          	addi	a4,a4,-1608 # 20b48 <_exit+0x198>
   15198:	00082783          	lw	a5,0(a6)
   1519c:	00000613          	li	a2,0
   151a0:	002ded93          	ori	s11,s11,2
   151a4:	00480813          	addi	a6,a6,4
   151a8:	00e12223          	sw	a4,4(sp)
   151ac:	02010da3          	sb	zero,59(sp)
   151b0:	3204c463          	bltz	s1,154d8 <_vfiprintf_r+0xc94>
   151b4:	00c7e733          	or	a4,a5,a2
   151b8:	f7fdf593          	andi	a1,s11,-129
   151bc:	30071863          	bnez	a4,154cc <_vfiprintf_r+0xc88>
   151c0:	000d8693          	mv	a3,s11
   151c4:	00200793          	li	a5,2
   151c8:	00058d93          	mv	s11,a1
   151cc:	eb5ff06f          	j	15080 <_vfiprintf_r+0x83c>
   151d0:	020df793          	andi	a5,s11,32
   151d4:	68079a63          	bnez	a5,15868 <_vfiprintf_r+0x1024>
   151d8:	010df793          	andi	a5,s11,16
   151dc:	0a0798e3          	bnez	a5,15a8c <_vfiprintf_r+0x1248>
   151e0:	040df793          	andi	a5,s11,64
   151e4:	120794e3          	bnez	a5,15b0c <_vfiprintf_r+0x12c8>
   151e8:	200dfd93          	andi	s11,s11,512
   151ec:	0a0d80e3          	beqz	s11,15a8c <_vfiprintf_r+0x1248>
   151f0:	00082783          	lw	a5,0(a6)
   151f4:	00480813          	addi	a6,a6,4
   151f8:	01878023          	sb	s8,0(a5)
   151fc:	f38ff06f          	j	14934 <_vfiprintf_r+0xf0>
   15200:	00100713          	li	a4,1
   15204:	00088793          	mv	a5,a7
   15208:	05212623          	sw	s2,76(sp)
   1520c:	05112823          	sw	a7,80(sp)
   15210:	05112423          	sw	a7,72(sp)
   15214:	04e12223          	sw	a4,68(sp)
   15218:	000a8413          	mv	s0,s5
   1521c:	00840413          	addi	s0,s0,8
   15220:	a19ff06f          	j	14c38 <_vfiprintf_r+0x3f4>
   15224:	00100593          	li	a1,1
   15228:	00000613          	li	a2,0
   1522c:	000a8693          	mv	a3,s5
   15230:	b4dff06f          	j	14d7c <_vfiprintf_r+0x538>
   15234:	40db8f33          	sub	t5,s7,a3
   15238:	9be056e3          	blez	t5,14be4 <_vfiprintf_r+0x3a0>
   1523c:	01000713          	li	a4,16
   15240:	13e75ce3          	bge	a4,t5,15b78 <_vfiprintf_r+0x1334>
   15244:	0000ce97          	auipc	t4,0xc
   15248:	e38e8e93          	addi	t4,t4,-456 # 2107c <zeroes.0>
   1524c:	00912623          	sw	s1,12(sp)
   15250:	00d12823          	sw	a3,16(sp)
   15254:	01000e13          	li	t3,16
   15258:	00040693          	mv	a3,s0
   1525c:	00700f93          	li	t6,7
   15260:	01112423          	sw	a7,8(sp)
   15264:	000f0413          	mv	s0,t5
   15268:	03012023          	sw	a6,32(sp)
   1526c:	000e8493          	mv	s1,t4
   15270:	0180006f          	j	15288 <_vfiprintf_r+0xa44>
   15274:	00260593          	addi	a1,a2,2
   15278:	00868693          	addi	a3,a3,8
   1527c:	00070613          	mv	a2,a4
   15280:	ff040413          	addi	s0,s0,-16
   15284:	048e5c63          	bge	t3,s0,152dc <_vfiprintf_r+0xa98>
   15288:	01078793          	addi	a5,a5,16
   1528c:	00160713          	addi	a4,a2,1
   15290:	0096a023          	sw	s1,0(a3)
   15294:	01c6a223          	sw	t3,4(a3)
   15298:	04f12423          	sw	a5,72(sp)
   1529c:	04e12223          	sw	a4,68(sp)
   152a0:	fcefdae3          	bge	t6,a4,15274 <_vfiprintf_r+0xa30>
   152a4:	18078c63          	beqz	a5,1543c <_vfiprintf_r+0xbf8>
   152a8:	00012503          	lw	a0,0(sp)
   152ac:	04010613          	addi	a2,sp,64
   152b0:	000b0593          	mv	a1,s6
   152b4:	c54ff0ef          	jal	14708 <__sprint_r.part.0>
   152b8:	fa051a63          	bnez	a0,14a6c <_vfiprintf_r+0x228>
   152bc:	04412603          	lw	a2,68(sp)
   152c0:	01000e13          	li	t3,16
   152c4:	ff040413          	addi	s0,s0,-16
   152c8:	04812783          	lw	a5,72(sp)
   152cc:	000a8693          	mv	a3,s5
   152d0:	00160593          	addi	a1,a2,1
   152d4:	00700f93          	li	t6,7
   152d8:	fa8e48e3          	blt	t3,s0,15288 <_vfiprintf_r+0xa44>
   152dc:	00040f13          	mv	t5,s0
   152e0:	00048e93          	mv	t4,s1
   152e4:	00068413          	mv	s0,a3
   152e8:	00812883          	lw	a7,8(sp)
   152ec:	01012683          	lw	a3,16(sp)
   152f0:	02012803          	lw	a6,32(sp)
   152f4:	00c12483          	lw	s1,12(sp)
   152f8:	01e787b3          	add	a5,a5,t5
   152fc:	01d42023          	sw	t4,0(s0)
   15300:	01e42223          	sw	t5,4(s0)
   15304:	04f12423          	sw	a5,72(sp)
   15308:	04b12223          	sw	a1,68(sp)
   1530c:	00700713          	li	a4,7
   15310:	54b75463          	bge	a4,a1,15858 <_vfiprintf_r+0x1014>
   15314:	7c078263          	beqz	a5,15ad8 <_vfiprintf_r+0x1294>
   15318:	00012503          	lw	a0,0(sp)
   1531c:	04010613          	addi	a2,sp,64
   15320:	000b0593          	mv	a1,s6
   15324:	01012823          	sw	a6,16(sp)
   15328:	00d12623          	sw	a3,12(sp)
   1532c:	01112423          	sw	a7,8(sp)
   15330:	bd8ff0ef          	jal	14708 <__sprint_r.part.0>
   15334:	f2051c63          	bnez	a0,14a6c <_vfiprintf_r+0x228>
   15338:	00812883          	lw	a7,8(sp)
   1533c:	04412603          	lw	a2,68(sp)
   15340:	04812783          	lw	a5,72(sp)
   15344:	411484b3          	sub	s1,s1,a7
   15348:	01012803          	lw	a6,16(sp)
   1534c:	00c12683          	lw	a3,12(sp)
   15350:	000a8413          	mv	s0,s5
   15354:	00160e13          	addi	t3,a2,1
   15358:	88905ae3          	blez	s1,14bec <_vfiprintf_r+0x3a8>
   1535c:	0000ce97          	auipc	t4,0xc
   15360:	d20e8e93          	addi	t4,t4,-736 # 2107c <zeroes.0>
   15364:	0a9a5063          	bge	s4,s1,15404 <_vfiprintf_r+0xbc0>
   15368:	00d12623          	sw	a3,12(sp)
   1536c:	00700f13          	li	t5,7
   15370:	00040693          	mv	a3,s0
   15374:	01112423          	sw	a7,8(sp)
   15378:	00048413          	mv	s0,s1
   1537c:	01012823          	sw	a6,16(sp)
   15380:	000c8493          	mv	s1,s9
   15384:	0180006f          	j	1539c <_vfiprintf_r+0xb58>
   15388:	00260e13          	addi	t3,a2,2
   1538c:	00868693          	addi	a3,a3,8
   15390:	00070613          	mv	a2,a4
   15394:	ff040413          	addi	s0,s0,-16
   15398:	048a5a63          	bge	s4,s0,153ec <_vfiprintf_r+0xba8>
   1539c:	01078793          	addi	a5,a5,16
   153a0:	00160713          	addi	a4,a2,1
   153a4:	0196a023          	sw	s9,0(a3)
   153a8:	0146a223          	sw	s4,4(a3)
   153ac:	04f12423          	sw	a5,72(sp)
   153b0:	04e12223          	sw	a4,68(sp)
   153b4:	fcef5ae3          	bge	t5,a4,15388 <_vfiprintf_r+0xb44>
   153b8:	06078a63          	beqz	a5,1542c <_vfiprintf_r+0xbe8>
   153bc:	00012503          	lw	a0,0(sp)
   153c0:	04010613          	addi	a2,sp,64
   153c4:	000b0593          	mv	a1,s6
   153c8:	b40ff0ef          	jal	14708 <__sprint_r.part.0>
   153cc:	ea051063          	bnez	a0,14a6c <_vfiprintf_r+0x228>
   153d0:	04412603          	lw	a2,68(sp)
   153d4:	ff040413          	addi	s0,s0,-16
   153d8:	04812783          	lw	a5,72(sp)
   153dc:	000a8693          	mv	a3,s5
   153e0:	00160e13          	addi	t3,a2,1
   153e4:	00700f13          	li	t5,7
   153e8:	fa8a4ae3          	blt	s4,s0,1539c <_vfiprintf_r+0xb58>
   153ec:	00048e93          	mv	t4,s1
   153f0:	00812883          	lw	a7,8(sp)
   153f4:	00040493          	mv	s1,s0
   153f8:	01012803          	lw	a6,16(sp)
   153fc:	00068413          	mv	s0,a3
   15400:	00c12683          	lw	a3,12(sp)
   15404:	009787b3          	add	a5,a5,s1
   15408:	01d42023          	sw	t4,0(s0)
   1540c:	00942223          	sw	s1,4(s0)
   15410:	04f12423          	sw	a5,72(sp)
   15414:	05c12223          	sw	t3,68(sp)
   15418:	00700713          	li	a4,7
   1541c:	23c74063          	blt	a4,t3,1563c <_vfiprintf_r+0xdf8>
   15420:	00840413          	addi	s0,s0,8
   15424:	001e0e13          	addi	t3,t3,1
   15428:	fc4ff06f          	j	14bec <_vfiprintf_r+0x3a8>
   1542c:	00100e13          	li	t3,1
   15430:	00000613          	li	a2,0
   15434:	000a8693          	mv	a3,s5
   15438:	f5dff06f          	j	15394 <_vfiprintf_r+0xb50>
   1543c:	00100593          	li	a1,1
   15440:	00000613          	li	a2,0
   15444:	000a8693          	mv	a3,s5
   15448:	e39ff06f          	j	15280 <_vfiprintf_r+0xa3c>
   1544c:	04078a63          	beqz	a5,154a0 <_vfiprintf_r+0xc5c>
   15450:	00012503          	lw	a0,0(sp)
   15454:	04010613          	addi	a2,sp,64
   15458:	000b0593          	mv	a1,s6
   1545c:	03012223          	sw	a6,36(sp)
   15460:	02d12023          	sw	a3,32(sp)
   15464:	01112823          	sw	a7,16(sp)
   15468:	01f12623          	sw	t6,12(sp)
   1546c:	01e12423          	sw	t5,8(sp)
   15470:	a98ff0ef          	jal	14708 <__sprint_r.part.0>
   15474:	de051c63          	bnez	a0,14a6c <_vfiprintf_r+0x228>
   15478:	04412603          	lw	a2,68(sp)
   1547c:	04812783          	lw	a5,72(sp)
   15480:	02412803          	lw	a6,36(sp)
   15484:	02012683          	lw	a3,32(sp)
   15488:	01012883          	lw	a7,16(sp)
   1548c:	00c12f83          	lw	t6,12(sp)
   15490:	00812f03          	lw	t5,8(sp)
   15494:	000a8413          	mv	s0,s5
   15498:	00160e13          	addi	t3,a2,1
   1549c:	ed0ff06f          	j	14b6c <_vfiprintf_r+0x328>
   154a0:	3e0f0063          	beqz	t5,15880 <_vfiprintf_r+0x103c>
   154a4:	03c10793          	addi	a5,sp,60
   154a8:	04f12623          	sw	a5,76(sp)
   154ac:	00200793          	li	a5,2
   154b0:	04f12823          	sw	a5,80(sp)
   154b4:	00100e13          	li	t3,1
   154b8:	000a8413          	mv	s0,s5
   154bc:	000e0613          	mv	a2,t3
   154c0:	00840413          	addi	s0,s0,8
   154c4:	001e0e13          	addi	t3,t3,1
   154c8:	f14ff06f          	j	14bdc <_vfiprintf_r+0x398>
   154cc:	00200713          	li	a4,2
   154d0:	00058d93          	mv	s11,a1
   154d4:	c40708e3          	beqz	a4,15124 <_vfiprintf_r+0x8e0>
   154d8:	00412583          	lw	a1,4(sp)
   154dc:	0f010913          	addi	s2,sp,240
   154e0:	00f7f713          	andi	a4,a5,15
   154e4:	00e58733          	add	a4,a1,a4
   154e8:	00074683          	lbu	a3,0(a4)
   154ec:	0047d793          	srli	a5,a5,0x4
   154f0:	01c61713          	slli	a4,a2,0x1c
   154f4:	00f767b3          	or	a5,a4,a5
   154f8:	00465613          	srli	a2,a2,0x4
   154fc:	fed90fa3          	sb	a3,-1(s2)
   15500:	00c7e733          	or	a4,a5,a2
   15504:	fff90913          	addi	s2,s2,-1
   15508:	fc071ce3          	bnez	a4,154e0 <_vfiprintf_r+0xc9c>
   1550c:	0f010793          	addi	a5,sp,240
   15510:	412788b3          	sub	a7,a5,s2
   15514:	00048693          	mv	a3,s1
   15518:	9914d8e3          	bge	s1,a7,14ea8 <_vfiprintf_r+0x664>
   1551c:	00088693          	mv	a3,a7
   15520:	989ff06f          	j	14ea8 <_vfiprintf_r+0x664>
   15524:	01000513          	li	a0,16
   15528:	62e55463          	bge	a0,a4,15b50 <_vfiprintf_r+0x130c>
   1552c:	0000ce17          	auipc	t3,0xc
   15530:	b60e0e13          	addi	t3,t3,-1184 # 2108c <blanks.1>
   15534:	02912023          	sw	s1,32(sp)
   15538:	02d12223          	sw	a3,36(sp)
   1553c:	01000e93          	li	t4,16
   15540:	00040693          	mv	a3,s0
   15544:	00700293          	li	t0,7
   15548:	01e12423          	sw	t5,8(sp)
   1554c:	01f12623          	sw	t6,12(sp)
   15550:	01112823          	sw	a7,16(sp)
   15554:	00070413          	mv	s0,a4
   15558:	03012423          	sw	a6,40(sp)
   1555c:	000e0493          	mv	s1,t3
   15560:	01c0006f          	j	1557c <_vfiprintf_r+0xd38>
   15564:	00260513          	addi	a0,a2,2
   15568:	00868693          	addi	a3,a3,8
   1556c:	00058613          	mv	a2,a1
   15570:	ff040413          	addi	s0,s0,-16
   15574:	048edc63          	bge	t4,s0,155cc <_vfiprintf_r+0xd88>
   15578:	00160593          	addi	a1,a2,1
   1557c:	01078793          	addi	a5,a5,16
   15580:	0096a023          	sw	s1,0(a3)
   15584:	01d6a223          	sw	t4,4(a3)
   15588:	04f12423          	sw	a5,72(sp)
   1558c:	04b12223          	sw	a1,68(sp)
   15590:	fcb2dae3          	bge	t0,a1,15564 <_vfiprintf_r+0xd20>
